
ocr.elf:     file format elf32-littleriscv


Disassembly of section .text:

80001000 <main>:
80001000:	80012537          	lui	a0,0x80012
80001004:	f7010113          	add	sp,sp,-144
80001008:	a8050513          	add	a0,a0,-1408 # 80011a80 <const_ff+0x80>
8000100c:	08112623          	sw	ra,140(sp)
80001010:	08812423          	sw	s0,136(sp)
80001014:	07312e23          	sw	s3,124(sp)
80001018:	07412c23          	sw	s4,120(sp)
8000101c:	07512a23          	sw	s5,116(sp)
80001020:	07612823          	sw	s6,112(sp)
80001024:	08912223          	sw	s1,132(sp)
80001028:	09212023          	sw	s2,128(sp)
8000102c:	7b8010ef          	jal	800027e4 <printf>
80001030:	144020ef          	jal	80003174 <clock>
80001034:	00050413          	mv	s0,a0
80001038:	80012537          	lui	a0,0x80012
8000103c:	00c10693          	add	a3,sp,12
80001040:	00810613          	add	a2,sp,8
80001044:	00410593          	add	a1,sp,4
80001048:	abc50513          	add	a0,a0,-1348 # 80011abc <const_ff+0xbc>
8000104c:	399000ef          	jal	80001be4 <read_images>
80001050:	00050a13          	mv	s4,a0
80001054:	80012537          	lui	a0,0x80012
80001058:	acc50513          	add	a0,a0,-1332 # 80011acc <const_ff+0xcc>
8000105c:	545000ef          	jal	80001da0 <read_labels>
80001060:	00050993          	mv	s3,a0
80001064:	80012537          	lui	a0,0x80012
80001068:	01010613          	add	a2,sp,16
8000106c:	00010593          	mv	a1,sp
80001070:	adc50513          	add	a0,a0,-1316 # 80011adc <const_ff+0xdc>
80001074:	5ad000ef          	jal	80001e20 <read_weights>
80001078:	00050a93          	mv	s5,a0
8000107c:	0f8020ef          	jal	80003174 <clock>
80001080:	40850533          	sub	a0,a0,s0
80001084:	3e800593          	li	a1,1000
80001088:	02b555b3          	divu	a1,a0,a1
8000108c:	80012537          	lui	a0,0x80012
80001090:	ae850513          	add	a0,a0,-1304 # 80011ae8 <const_ff+0xe8>
80001094:	750010ef          	jal	800027e4 <printf>
80001098:	00012583          	lw	a1,0(sp)
8000109c:	01010613          	add	a2,sp,16
800010a0:	03010513          	add	a0,sp,48
800010a4:	178000ef          	jal	8000121c <neuronet_init>
800010a8:	000a8593          	mv	a1,s5
800010ac:	03010513          	add	a0,sp,48
800010b0:	3ac000ef          	jal	8000145c <neuronet_load>
800010b4:	80012537          	lui	a0,0x80012
800010b8:	b1c50513          	add	a0,a0,-1252 # 80011b1c <const_ff+0x11c>
800010bc:	728010ef          	jal	800027e4 <printf>
800010c0:	01812703          	lw	a4,24(sp)
800010c4:	01412683          	lw	a3,20(sp)
800010c8:	01012603          	lw	a2,16(sp)
800010cc:	00012583          	lw	a1,0(sp)
800010d0:	80012537          	lui	a0,0x80012
800010d4:	b5450513          	add	a0,a0,-1196 # 80011b54 <const_ff+0x154>
800010d8:	70c010ef          	jal	800027e4 <printf>
800010dc:	80012537          	lui	a0,0x80012
800010e0:	b9050513          	add	a0,a0,-1136 # 80011b90 <const_ff+0x190>
800010e4:	700010ef          	jal	800027e4 <printf>
800010e8:	08c020ef          	jal	80003174 <clock>
800010ec:	00412783          	lw	a5,4(sp)
800010f0:	00050b13          	mv	s6,a0
800010f4:	12f05063          	blez	a5,80001214 <main+0x214>
800010f8:	000a0493          	mv	s1,s4
800010fc:	00000413          	li	s0,0
80001100:	00000913          	li	s2,0
80001104:	0004a583          	lw	a1,0(s1)
80001108:	03010513          	add	a0,sp,48
8000110c:	00448493          	add	s1,s1,4
80001110:	3b4000ef          	jal	800014c4 <neuronet_eval>
80001114:	008987b3          	add	a5,s3,s0
80001118:	0007c783          	lbu	a5,0(a5)
8000111c:	00412703          	lw	a4,4(sp)
80001120:	00140413          	add	s0,s0,1
80001124:	40a787b3          	sub	a5,a5,a0
80001128:	0017b793          	seqz	a5,a5
8000112c:	00f90933          	add	s2,s2,a5
80001130:	fce44ae3          	blt	s0,a4,80001104 <main+0x104>
80001134:	040020ef          	jal	80003174 <clock>
80001138:	00050413          	mv	s0,a0
8000113c:	00090513          	mv	a0,s2
80001140:	4f5060ef          	jal	80007e34 <__floatunsisf>
80001144:	800087b7          	lui	a5,0x80008
80001148:	07c7a583          	lw	a1,124(a5) # 8000807c <__clzsi2+0x4c>
8000114c:	00412903          	lw	s2,4(sp)
80001150:	41640433          	sub	s0,s0,s6
80001154:	37c060ef          	jal	800074d0 <__mulsf3>
80001158:	00050493          	mv	s1,a0
8000115c:	00090513          	mv	a0,s2
80001160:	3c1060ef          	jal	80007d20 <__floatsisf>
80001164:	00050593          	mv	a1,a0
80001168:	00048513          	mv	a0,s1
8000116c:	67d050ef          	jal	80006fe8 <__divsf3>
80001170:	5ad060ef          	jal	80007f1c <__extendsfdf2>
80001174:	00050613          	mv	a2,a0
80001178:	80012537          	lui	a0,0x80012
8000117c:	00058693          	mv	a3,a1
80001180:	ba850513          	add	a0,a0,-1112 # 80011ba8 <const_ff+0x1a8>
80001184:	00090593          	mv	a1,s2
80001188:	65c010ef          	jal	800027e4 <printf>
8000118c:	3e800593          	li	a1,1000
80001190:	02b455b3          	divu	a1,s0,a1
80001194:	80012537          	lui	a0,0x80012
80001198:	bd450513          	add	a0,a0,-1068 # 80011bd4 <const_ff+0x1d4>
8000119c:	648010ef          	jal	800027e4 <printf>
800011a0:	03010513          	add	a0,sp,48
800011a4:	2e4000ef          	jal	80001488 <neuronet_free>
800011a8:	00412783          	lw	a5,4(sp)
800011ac:	02f05263          	blez	a5,800011d0 <main+0x1d0>
800011b0:	000a0493          	mv	s1,s4
800011b4:	00000413          	li	s0,0
800011b8:	0004a503          	lw	a0,0(s1)
800011bc:	00140413          	add	s0,s0,1
800011c0:	00448493          	add	s1,s1,4
800011c4:	1b9010ef          	jal	80002b7c <free>
800011c8:	00412783          	lw	a5,4(sp)
800011cc:	fef446e3          	blt	s0,a5,800011b8 <main+0x1b8>
800011d0:	000a0513          	mv	a0,s4
800011d4:	1a9010ef          	jal	80002b7c <free>
800011d8:	00098513          	mv	a0,s3
800011dc:	1a1010ef          	jal	80002b7c <free>
800011e0:	000a8513          	mv	a0,s5
800011e4:	199010ef          	jal	80002b7c <free>
800011e8:	08c12083          	lw	ra,140(sp)
800011ec:	08812403          	lw	s0,136(sp)
800011f0:	08412483          	lw	s1,132(sp)
800011f4:	08012903          	lw	s2,128(sp)
800011f8:	07c12983          	lw	s3,124(sp)
800011fc:	07812a03          	lw	s4,120(sp)
80001200:	07412a83          	lw	s5,116(sp)
80001204:	07012b03          	lw	s6,112(sp)
80001208:	00000513          	li	a0,0
8000120c:	09010113          	add	sp,sp,144
80001210:	00008067          	ret
80001214:	00000913          	li	s2,0
80001218:	f1dff06f          	j	80001134 <main+0x134>

8000121c <neuronet_init>:
8000121c:	fc010113          	add	sp,sp,-64
80001220:	02112e23          	sw	ra,60(sp)
80001224:	02812c23          	sw	s0,56(sp)
80001228:	02912a23          	sw	s1,52(sp)
8000122c:	03212823          	sw	s2,48(sp)
80001230:	03312623          	sw	s3,44(sp)
80001234:	03412423          	sw	s4,40(sp)
80001238:	ffe58713          	add	a4,a1,-2
8000123c:	00600793          	li	a5,6
80001240:	1ee7e263          	bltu	a5,a4,80001424 <neuronet_init+0x208>
80001244:	01050913          	add	s2,a0,16
80001248:	00259a13          	sll	s4,a1,0x2
8000124c:	00050413          	mv	s0,a0
80001250:	02052a23          	sw	zero,52(a0)
80001254:	00058993          	mv	s3,a1
80001258:	00090493          	mv	s1,s2
8000125c:	014606b3          	add	a3,a2,s4
80001260:	00090793          	mv	a5,s2
80001264:	00000513          	li	a0,0
80001268:	00062703          	lw	a4,0(a2)
8000126c:	00460613          	add	a2,a2,4
80001270:	00478793          	add	a5,a5,4
80001274:	00e50533          	add	a0,a0,a4
80001278:	fee7ae23          	sw	a4,-4(a5)
8000127c:	02a42a23          	sw	a0,52(s0)
80001280:	fed614e3          	bne	a2,a3,80001268 <neuronet_init+0x4c>
80001284:	00251513          	sll	a0,a0,0x2
80001288:	7cc010ef          	jal	80002a54 <malloc>
8000128c:	03442783          	lw	a5,52(s0)
80001290:	00a42023          	sw	a0,0(s0)
80001294:	00279513          	sll	a0,a5,0x2
80001298:	7bc010ef          	jal	80002a54 <malloc>
8000129c:	03442783          	lw	a5,52(s0)
800012a0:	00a42623          	sw	a0,12(s0)
800012a4:	00279513          	sll	a0,a5,0x2
800012a8:	7ac010ef          	jal	80002a54 <malloc>
800012ac:	00042303          	lw	t1,0(s0)
800012b0:	00010893          	mv	a7,sp
800012b4:	00a42423          	sw	a0,8(s0)
800012b8:	03342823          	sw	s3,48(s0)
800012bc:	014885b3          	add	a1,a7,s4
800012c0:	00090613          	mv	a2,s2
800012c4:	00088793          	mv	a5,a7
800012c8:	00000693          	li	a3,0
800012cc:	00062803          	lw	a6,0(a2)
800012d0:	00269713          	sll	a4,a3,0x2
800012d4:	00e30733          	add	a4,t1,a4
800012d8:	00e7a023          	sw	a4,0(a5)
800012dc:	00478793          	add	a5,a5,4
800012e0:	010686b3          	add	a3,a3,a6
800012e4:	00460613          	add	a2,a2,4
800012e8:	feb792e3          	bne	a5,a1,800012cc <neuronet_init+0xb0>
800012ec:	fff98793          	add	a5,s3,-1
800012f0:	00279793          	sll	a5,a5,0x2
800012f4:	02078793          	add	a5,a5,32
800012f8:	002787b3          	add	a5,a5,sp
800012fc:	fe07a783          	lw	a5,-32(a5)
80001300:	01042303          	lw	t1,16(s0)
80001304:	01440593          	add	a1,s0,20
80001308:	02f42e23          	sw	a5,60(s0)
8000130c:	01490e33          	add	t3,s2,s4
80001310:	00058813          	mv	a6,a1
80001314:	00030793          	mv	a5,t1
80001318:	00082703          	lw	a4,0(a6)
8000131c:	02070663          	beqz	a4,80001348 <neuronet_init+0x12c>
80001320:	00f70633          	add	a2,a4,a5
80001324:	0008a683          	lw	a3,0(a7)
80001328:	00279793          	sll	a5,a5,0x2
8000132c:	00261713          	sll	a4,a2,0x2
80001330:	00f507b3          	add	a5,a0,a5
80001334:	00e50733          	add	a4,a0,a4
80001338:	00d7a023          	sw	a3,0(a5)
8000133c:	00478793          	add	a5,a5,4
80001340:	fee79ce3          	bne	a5,a4,80001338 <neuronet_init+0x11c>
80001344:	00060793          	mv	a5,a2
80001348:	00480813          	add	a6,a6,4
8000134c:	00488893          	add	a7,a7,4
80001350:	fdc814e3          	bne	a6,t3,80001318 <neuronet_init+0xfc>
80001354:	00000513          	li	a0,0
80001358:	00130793          	add	a5,t1,1
8000135c:	0005a303          	lw	t1,0(a1)
80001360:	00458593          	add	a1,a1,4
80001364:	026787b3          	mul	a5,a5,t1
80001368:	00f50533          	add	a0,a0,a5
8000136c:	ffc596e3          	bne	a1,t3,80001358 <neuronet_init+0x13c>
80001370:	02a42c23          	sw	a0,56(s0)
80001374:	00251513          	sll	a0,a0,0x2
80001378:	6dc010ef          	jal	80002a54 <malloc>
8000137c:	03042703          	lw	a4,48(s0)
80001380:	00a42223          	sw	a0,4(s0)
80001384:	00100693          	li	a3,1
80001388:	01042783          	lw	a5,16(s0)
8000138c:	06e6dc63          	bge	a3,a4,80001404 <neuronet_init+0x1e8>
80001390:	00c40e13          	add	t3,s0,12
80001394:	00271713          	sll	a4,a4,0x2
80001398:	00ee0e33          	add	t3,t3,a4
8000139c:	00000893          	li	a7,0
800013a0:	0044a503          	lw	a0,4(s1)
800013a4:	04a05c63          	blez	a0,800013fc <neuronet_init+0x1e0>
800013a8:	0004a803          	lw	a6,0(s1)
800013ac:	00c42603          	lw	a2,12(s0)
800013b0:	00f50333          	add	t1,a0,a5
800013b4:	00180813          	add	a6,a6,1
800013b8:	00279793          	sll	a5,a5,0x2
800013bc:	00231713          	sll	a4,t1,0x2
800013c0:	00f607b3          	add	a5,a2,a5
800013c4:	00281593          	sll	a1,a6,0x2
800013c8:	00289693          	sll	a3,a7,0x2
800013cc:	00e60633          	add	a2,a2,a4
800013d0:	00442703          	lw	a4,4(s0)
800013d4:	00478793          	add	a5,a5,4
800013d8:	00d70733          	add	a4,a4,a3
800013dc:	fee7ae23          	sw	a4,-4(a5)
800013e0:	00b686b3          	add	a3,a3,a1
800013e4:	fef616e3          	bne	a2,a5,800013d0 <neuronet_init+0x1b4>
800013e8:	fff50513          	add	a0,a0,-1
800013ec:	03050533          	mul	a0,a0,a6
800013f0:	011808b3          	add	a7,a6,a7
800013f4:	00030793          	mv	a5,t1
800013f8:	011508b3          	add	a7,a0,a7
800013fc:	00448493          	add	s1,s1,4
80001400:	fa9e10e3          	bne	t3,s1,800013a0 <neuronet_init+0x184>
80001404:	03c12083          	lw	ra,60(sp)
80001408:	03812403          	lw	s0,56(sp)
8000140c:	03412483          	lw	s1,52(sp)
80001410:	03012903          	lw	s2,48(sp)
80001414:	02c12983          	lw	s3,44(sp)
80001418:	02812a03          	lw	s4,40(sp)
8000141c:	04010113          	add	sp,sp,64
80001420:	00008067          	ret
80001424:	80012537          	lui	a0,0x80012
80001428:	bfc50513          	add	a0,a0,-1028 # 80011bfc <const_ff+0x1fc>
8000142c:	3b8010ef          	jal	800027e4 <printf>
80001430:	03812403          	lw	s0,56(sp)
80001434:	03c12083          	lw	ra,60(sp)
80001438:	03412483          	lw	s1,52(sp)
8000143c:	03012903          	lw	s2,48(sp)
80001440:	02c12983          	lw	s3,44(sp)
80001444:	02812a03          	lw	s4,40(sp)
80001448:	80012537          	lui	a0,0x80012
8000144c:	00800593          	li	a1,8
80001450:	c0850513          	add	a0,a0,-1016 # 80011c08 <const_ff+0x208>
80001454:	04010113          	add	sp,sp,64
80001458:	38c0106f          	j	800027e4 <printf>

8000145c <neuronet_load>:
8000145c:	03852683          	lw	a3,56(a0)
80001460:	02d05263          	blez	a3,80001484 <neuronet_load+0x28>
80001464:	00452783          	lw	a5,4(a0)
80001468:	00269693          	sll	a3,a3,0x2
8000146c:	00d586b3          	add	a3,a1,a3
80001470:	0005a703          	lw	a4,0(a1)
80001474:	00458593          	add	a1,a1,4
80001478:	00478793          	add	a5,a5,4
8000147c:	fee7ae23          	sw	a4,-4(a5)
80001480:	fed598e3          	bne	a1,a3,80001470 <neuronet_load+0x14>
80001484:	00008067          	ret

80001488 <neuronet_free>:
80001488:	ff010113          	add	sp,sp,-16
8000148c:	00812423          	sw	s0,8(sp)
80001490:	00050413          	mv	s0,a0
80001494:	00452503          	lw	a0,4(a0)
80001498:	00112623          	sw	ra,12(sp)
8000149c:	6e0010ef          	jal	80002b7c <free>
800014a0:	00842503          	lw	a0,8(s0)
800014a4:	6d8010ef          	jal	80002b7c <free>
800014a8:	00c42503          	lw	a0,12(s0)
800014ac:	6d0010ef          	jal	80002b7c <free>
800014b0:	00042503          	lw	a0,0(s0)
800014b4:	00812403          	lw	s0,8(sp)
800014b8:	00c12083          	lw	ra,12(sp)
800014bc:	01010113          	add	sp,sp,16
800014c0:	6bc0106f          	j	80002b7c <free>

800014c4 <neuronet_eval>:
800014c4:	fb010113          	add	sp,sp,-80
800014c8:	01052603          	lw	a2,16(a0)
800014cc:	03512a23          	sw	s5,52(sp)
800014d0:	00050a93          	mv	s5,a0
800014d4:	00052503          	lw	a0,0(a0)
800014d8:	00261613          	sll	a2,a2,0x2
800014dc:	03312e23          	sw	s3,60(sp)
800014e0:	04112623          	sw	ra,76(sp)
800014e4:	04812423          	sw	s0,72(sp)
800014e8:	04912223          	sw	s1,68(sp)
800014ec:	05212023          	sw	s2,64(sp)
800014f0:	03412c23          	sw	s4,56(sp)
800014f4:	03612823          	sw	s6,48(sp)
800014f8:	03712623          	sw	s7,44(sp)
800014fc:	03812423          	sw	s8,40(sp)
80001500:	03912223          	sw	s9,36(sp)
80001504:	03a12023          	sw	s10,32(sp)
80001508:	01b12e23          	sw	s11,28(sp)
8000150c:	279010ef          	jal	80002f84 <memcpy>
80001510:	030aa783          	lw	a5,48(s5)
80001514:	00100713          	li	a4,1
80001518:	010aa983          	lw	s3,16(s5)
8000151c:	10f75263          	bge	a4,a5,80001620 <neuronet_eval+0x15c>
80001520:	800127b7          	lui	a5,0x80012
80001524:	0e87a783          	lw	a5,232(a5) # 800120e8 <vec_size>
80001528:	010a8a13          	add	s4,s5,16
8000152c:	00100b13          	li	s6,1
80001530:	00f12423          	sw	a5,8(sp)
80001534:	008aa783          	lw	a5,8(s5)
80001538:	00f12623          	sw	a5,12(sp)
8000153c:	800127b7          	lui	a5,0x80012
80001540:	0e47ad83          	lw	s11,228(a5) # 800120e4 <vec_weight>
80001544:	800127b7          	lui	a5,0x80012
80001548:	0e07a483          	lw	s1,224(a5) # 800120e0 <result>
8000154c:	00c12783          	lw	a5,12(sp)
80001550:	00299513          	sll	a0,s3,0x2
80001554:	00812703          	lw	a4,8(sp)
80001558:	000a2d03          	lw	s10,0(s4)
8000155c:	00a787b3          	add	a5,a5,a0
80001560:	0007a783          	lw	a5,0(a5)
80001564:	01a72023          	sw	s10,0(a4)
80001568:	c4000737          	lui	a4,0xc4000
8000156c:	00000693          	li	a3,0
80001570:	40f705b3          	sub	a1,a4,a5
80001574:	01a05e63          	blez	s10,80001590 <neuronet_eval+0xcc>
80001578:	0007a603          	lw	a2,0(a5)
8000157c:	00b78733          	add	a4,a5,a1
80001580:	00168693          	add	a3,a3,1
80001584:	00c72023          	sw	a2,0(a4) # c4000000 <__freertos_irq_stack_top+0x43ded6d0>
80001588:	00478793          	add	a5,a5,4
8000158c:	fedd16e3          	bne	s10,a3,80001578 <neuronet_eval+0xb4>
80001590:	004a2783          	lw	a5,4(s4)
80001594:	06f05e63          	blez	a5,80001610 <neuronet_eval+0x14c>
80001598:	00caa403          	lw	s0,12(s5)
8000159c:	000aa883          	lw	a7,0(s5)
800015a0:	013789b3          	add	s3,a5,s3
800015a4:	00299793          	sll	a5,s3,0x2
800015a8:	00a40c33          	add	s8,s0,a0
800015ac:	00a88bb3          	add	s7,a7,a0
800015b0:	00f40433          	add	s0,s0,a5
800015b4:	002d1913          	sll	s2,s10,0x2
800015b8:	000c2603          	lw	a2,0(s8)
800015bc:	03a05263          	blez	s10,800015e0 <neuronet_eval+0x11c>
800015c0:	00060713          	mv	a4,a2
800015c4:	00000793          	li	a5,0
800015c8:	00072683          	lw	a3,0(a4)
800015cc:	00178793          	add	a5,a5,1
800015d0:	00470713          	add	a4,a4,4
800015d4:	00dda023          	sw	a3,0(s11)
800015d8:	fefd18e3          	bne	s10,a5,800015c8 <neuronet_eval+0x104>
800015dc:	01260633          	add	a2,a2,s2
800015e0:	00062783          	lw	a5,0(a2)
800015e4:	00000593          	li	a1,0
800015e8:	00fda023          	sw	a5,0(s11)
800015ec:	0004ac83          	lw	s9,0(s1)
800015f0:	000c8513          	mv	a0,s9
800015f4:	601050ef          	jal	800073f4 <__lesf2>
800015f8:	00055463          	bgez	a0,80001600 <neuronet_eval+0x13c>
800015fc:	00000c93          	li	s9,0
80001600:	019ba023          	sw	s9,0(s7)
80001604:	004c0c13          	add	s8,s8,4
80001608:	004b8b93          	add	s7,s7,4
8000160c:	fa8c16e3          	bne	s8,s0,800015b8 <neuronet_eval+0xf4>
80001610:	030aa783          	lw	a5,48(s5)
80001614:	001b0b13          	add	s6,s6,1
80001618:	004a0a13          	add	s4,s4,4
8000161c:	f2fb48e3          	blt	s6,a5,8000154c <neuronet_eval+0x88>
80001620:	00378793          	add	a5,a5,3
80001624:	00279793          	sll	a5,a5,0x2
80001628:	00fa87b3          	add	a5,s5,a5
8000162c:	0007aa03          	lw	s4,0(a5)
80001630:	09405063          	blez	s4,800016b0 <neuronet_eval+0x1ec>
80001634:	800087b7          	lui	a5,0x80008
80001638:	0807a983          	lw	s3,128(a5) # 80008080 <__clzsi2+0x50>
8000163c:	03caa483          	lw	s1,60(s5)
80001640:	00000413          	li	s0,0
80001644:	00000a93          	li	s5,0
80001648:	0004a903          	lw	s2,0(s1)
8000164c:	00098593          	mv	a1,s3
80001650:	00448493          	add	s1,s1,4
80001654:	00090513          	mv	a0,s2
80001658:	4c1050ef          	jal	80007318 <__gesf2>
8000165c:	00a05663          	blez	a0,80001668 <neuronet_eval+0x1a4>
80001660:	00040a93          	mv	s5,s0
80001664:	00090993          	mv	s3,s2
80001668:	00140413          	add	s0,s0,1
8000166c:	fd441ee3          	bne	s0,s4,80001648 <neuronet_eval+0x184>
80001670:	04c12083          	lw	ra,76(sp)
80001674:	04812403          	lw	s0,72(sp)
80001678:	04412483          	lw	s1,68(sp)
8000167c:	04012903          	lw	s2,64(sp)
80001680:	03c12983          	lw	s3,60(sp)
80001684:	03812a03          	lw	s4,56(sp)
80001688:	03012b03          	lw	s6,48(sp)
8000168c:	02c12b83          	lw	s7,44(sp)
80001690:	02812c03          	lw	s8,40(sp)
80001694:	02412c83          	lw	s9,36(sp)
80001698:	02012d03          	lw	s10,32(sp)
8000169c:	01c12d83          	lw	s11,28(sp)
800016a0:	000a8513          	mv	a0,s5
800016a4:	03412a83          	lw	s5,52(sp)
800016a8:	05010113          	add	sp,sp,80
800016ac:	00008067          	ret
800016b0:	00000a93          	li	s5,0
800016b4:	fbdff06f          	j	80001670 <neuronet_eval+0x1ac>

800016b8 <relu>:
800016b8:	ff010113          	add	sp,sp,-16
800016bc:	00000593          	li	a1,0
800016c0:	00812423          	sw	s0,8(sp)
800016c4:	00112623          	sw	ra,12(sp)
800016c8:	00050413          	mv	s0,a0
800016cc:	529050ef          	jal	800073f4 <__lesf2>
800016d0:	00055463          	bgez	a0,800016d8 <relu+0x20>
800016d4:	00000413          	li	s0,0
800016d8:	00c12083          	lw	ra,12(sp)
800016dc:	00040513          	mv	a0,s0
800016e0:	00812403          	lw	s0,8(sp)
800016e4:	01010113          	add	sp,sp,16
800016e8:	00008067          	ret

800016ec <lerp>:
800016ec:	ff010113          	add	sp,sp,-16
800016f0:	00812423          	sw	s0,8(sp)
800016f4:	00050413          	mv	s0,a0
800016f8:	00058513          	mv	a0,a1
800016fc:	00040593          	mv	a1,s0
80001700:	00112623          	sw	ra,12(sp)
80001704:	00912223          	sw	s1,4(sp)
80001708:	00060493          	mv	s1,a2
8000170c:	0f8060ef          	jal	80007804 <__subsf3>
80001710:	00048593          	mv	a1,s1
80001714:	5bd050ef          	jal	800074d0 <__mulsf3>
80001718:	00040593          	mv	a1,s0
8000171c:	45c050ef          	jal	80006b78 <__addsf3>
80001720:	00c12083          	lw	ra,12(sp)
80001724:	00812403          	lw	s0,8(sp)
80001728:	00412483          	lw	s1,4(sp)
8000172c:	01010113          	add	sp,sp,16
80001730:	00008067          	ret

80001734 <sample>:
80001734:	fd010113          	add	sp,sp,-48
80001738:	01512a23          	sw	s5,20(sp)
8000173c:	00050a93          	mv	s5,a0
80001740:	00058513          	mv	a0,a1
80001744:	02112623          	sw	ra,44(sp)
80001748:	02812423          	sw	s0,40(sp)
8000174c:	02912223          	sw	s1,36(sp)
80001750:	03212023          	sw	s2,32(sp)
80001754:	00068493          	mv	s1,a3
80001758:	01312e23          	sw	s3,28(sp)
8000175c:	01412c23          	sw	s4,24(sp)
80001760:	00058993          	mv	s3,a1
80001764:	00060a13          	mv	s4,a2
80001768:	01612823          	sw	s6,16(sp)
8000176c:	01812423          	sw	s8,8(sp)
80001770:	01a12023          	sw	s10,0(sp)
80001774:	00070c13          	mv	s8,a4
80001778:	01712623          	sw	s7,12(sp)
8000177c:	01912223          	sw	s9,4(sp)
80001780:	540060ef          	jal	80007cc0 <__fixunssfsi>
80001784:	00050913          	mv	s2,a0
80001788:	000a0513          	mv	a0,s4
8000178c:	534060ef          	jal	80007cc0 <__fixunssfsi>
80001790:	00050413          	mv	s0,a0
80001794:	00090513          	mv	a0,s2
80001798:	69c060ef          	jal	80007e34 <__floatunsisf>
8000179c:	00050593          	mv	a1,a0
800017a0:	00098513          	mv	a0,s3
800017a4:	060060ef          	jal	80007804 <__subsf3>
800017a8:	00050993          	mv	s3,a0
800017ac:	00040513          	mv	a0,s0
800017b0:	684060ef          	jal	80007e34 <__floatunsisf>
800017b4:	00050593          	mv	a1,a0
800017b8:	000a0513          	mv	a0,s4
800017bc:	048060ef          	jal	80007804 <__subsf3>
800017c0:	00190d13          	add	s10,s2,1
800017c4:	00140b13          	add	s6,s0,1
800017c8:	00050a13          	mv	s4,a0
800017cc:	04997e63          	bgeu	s2,s1,80001828 <sample+0xf4>
800017d0:	0b847463          	bgeu	s0,s8,80001878 <sample+0x144>
800017d4:	02848433          	mul	s0,s1,s0
800017d8:	012407b3          	add	a5,s0,s2
800017dc:	00279793          	sll	a5,a5,0x2
800017e0:	00fa87b3          	add	a5,s5,a5
800017e4:	0007ab83          	lw	s7,0(a5)
800017e8:	149d6663          	bltu	s10,s1,80001934 <sample+0x200>
800017ec:	000b8593          	mv	a1,s7
800017f0:	00000513          	li	a0,0
800017f4:	010060ef          	jal	80007804 <__subsf3>
800017f8:	00050c93          	mv	s9,a0
800017fc:	0b8b7263          	bgeu	s6,s8,800018a0 <sample+0x16c>
80001800:	036487b3          	mul	a5,s1,s6
80001804:	012787b3          	add	a5,a5,s2
80001808:	00279793          	sll	a5,a5,0x2
8000180c:	00fa87b3          	add	a5,s5,a5
80001810:	0007a903          	lw	s2,0(a5)
80001814:	00090593          	mv	a1,s2
80001818:	00000513          	li	a0,0
8000181c:	7e9050ef          	jal	80007804 <__subsf3>
80001820:	00050493          	mv	s1,a0
80001824:	0840006f          	j	800018a8 <sample+0x174>
80001828:	00000c93          	li	s9,0
8000182c:	0e9d7c63          	bgeu	s10,s1,80001924 <sample+0x1f0>
80001830:	01847c63          	bgeu	s0,s8,80001848 <sample+0x114>
80001834:	028487b3          	mul	a5,s1,s0
80001838:	01a787b3          	add	a5,a5,s10
8000183c:	00279793          	sll	a5,a5,0x2
80001840:	00fa87b3          	add	a5,s5,a5
80001844:	0007ac83          	lw	s9,0(a5)
80001848:	118b7863          	bgeu	s6,s8,80001958 <sample+0x224>
8000184c:	03648b33          	mul	s6,s1,s6
80001850:	00000913          	li	s2,0
80001854:	00090b93          	mv	s7,s2
80001858:	016d0b33          	add	s6,s10,s6
8000185c:	002b1b13          	sll	s6,s6,0x2
80001860:	016a8b33          	add	s6,s5,s6
80001864:	000b2503          	lw	a0,0(s6)
80001868:	00090593          	mv	a1,s2
8000186c:	799050ef          	jal	80007804 <__subsf3>
80001870:	00050493          	mv	s1,a0
80001874:	0340006f          	j	800018a8 <sample+0x174>
80001878:	00000c93          	li	s9,0
8000187c:	000c8b93          	mv	s7,s9
80001880:	038b7063          	bgeu	s6,s8,800018a0 <sample+0x16c>
80001884:	03648b33          	mul	s6,s1,s6
80001888:	012b0933          	add	s2,s6,s2
8000188c:	00291913          	sll	s2,s2,0x2
80001890:	012a8933          	add	s2,s5,s2
80001894:	00092903          	lw	s2,0(s2)
80001898:	fc9d60e3          	bltu	s10,s1,80001858 <sample+0x124>
8000189c:	f79ff06f          	j	80001814 <sample+0xe0>
800018a0:	00000493          	li	s1,0
800018a4:	00048913          	mv	s2,s1
800018a8:	000c8593          	mv	a1,s9
800018ac:	00098513          	mv	a0,s3
800018b0:	421050ef          	jal	800074d0 <__mulsf3>
800018b4:	000b8593          	mv	a1,s7
800018b8:	2c0050ef          	jal	80006b78 <__addsf3>
800018bc:	00050413          	mv	s0,a0
800018c0:	00048593          	mv	a1,s1
800018c4:	00098513          	mv	a0,s3
800018c8:	409050ef          	jal	800074d0 <__mulsf3>
800018cc:	00090593          	mv	a1,s2
800018d0:	2a8050ef          	jal	80006b78 <__addsf3>
800018d4:	00040593          	mv	a1,s0
800018d8:	72d050ef          	jal	80007804 <__subsf3>
800018dc:	000a0593          	mv	a1,s4
800018e0:	3f1050ef          	jal	800074d0 <__mulsf3>
800018e4:	00040593          	mv	a1,s0
800018e8:	290050ef          	jal	80006b78 <__addsf3>
800018ec:	02c12083          	lw	ra,44(sp)
800018f0:	02812403          	lw	s0,40(sp)
800018f4:	02412483          	lw	s1,36(sp)
800018f8:	02012903          	lw	s2,32(sp)
800018fc:	01c12983          	lw	s3,28(sp)
80001900:	01812a03          	lw	s4,24(sp)
80001904:	01412a83          	lw	s5,20(sp)
80001908:	01012b03          	lw	s6,16(sp)
8000190c:	00c12b83          	lw	s7,12(sp)
80001910:	00812c03          	lw	s8,8(sp)
80001914:	00412c83          	lw	s9,4(sp)
80001918:	00012d03          	lw	s10,0(sp)
8000191c:	03010113          	add	sp,sp,48
80001920:	00008067          	ret
80001924:	000c8493          	mv	s1,s9
80001928:	000c8913          	mv	s2,s9
8000192c:	000c8b93          	mv	s7,s9
80001930:	f79ff06f          	j	800018a8 <sample+0x174>
80001934:	01a40433          	add	s0,s0,s10
80001938:	00241793          	sll	a5,s0,0x2
8000193c:	00fa87b3          	add	a5,s5,a5
80001940:	0007a503          	lw	a0,0(a5)
80001944:	000b8593          	mv	a1,s7
80001948:	6bd050ef          	jal	80007804 <__subsf3>
8000194c:	00050c93          	mv	s9,a0
80001950:	f38b6ae3          	bltu	s6,s8,80001884 <sample+0x150>
80001954:	f4dff06f          	j	800018a0 <sample+0x16c>
80001958:	00000493          	li	s1,0
8000195c:	00048913          	mv	s2,s1
80001960:	00048b93          	mv	s7,s1
80001964:	f45ff06f          	j	800018a8 <sample+0x174>

80001968 <width_normalize>:
80001968:	fb010113          	add	sp,sp,-80
8000196c:	04912223          	sw	s1,68(sp)
80001970:	02c584b3          	mul	s1,a1,a2
80001974:	03912223          	sw	s9,36(sp)
80001978:	00050c93          	mv	s9,a0
8000197c:	04812423          	sw	s0,72(sp)
80001980:	03612823          	sw	s6,48(sp)
80001984:	04112623          	sw	ra,76(sp)
80001988:	05212023          	sw	s2,64(sp)
8000198c:	03312e23          	sw	s3,60(sp)
80001990:	03412c23          	sw	s4,56(sp)
80001994:	03512a23          	sw	s5,52(sp)
80001998:	00249793          	sll	a5,s1,0x2
8000199c:	00078513          	mv	a0,a5
800019a0:	00f12623          	sw	a5,12(sp)
800019a4:	03712623          	sw	s7,44(sp)
800019a8:	03812423          	sw	s8,40(sp)
800019ac:	03a12023          	sw	s10,32(sp)
800019b0:	01b12e23          	sw	s11,28(sp)
800019b4:	00058413          	mv	s0,a1
800019b8:	00060b13          	mv	s6,a2
800019bc:	098010ef          	jal	80002a54 <malloc>
800019c0:	800127b7          	lui	a5,0x80012
800019c4:	10a7ae23          	sw	a0,284(a5) # 8001211c <ibuf.0>
800019c8:	1e050863          	beqz	a0,80001bb8 <width_normalize+0x250>
800019cc:	20905263          	blez	s1,80001bd0 <width_normalize+0x268>
800019d0:	800087b7          	lui	a5,0x80008
800019d4:	0887aa03          	lw	s4,136(a5) # 80008088 <__clzsi2+0x58>
800019d8:	08c7aa83          	lw	s5,140(a5)
800019dc:	000c8d13          	mv	s10,s9
800019e0:	000b0c13          	mv	s8,s6
800019e4:	00040b93          	mv	s7,s0
800019e8:	00000d93          	li	s11,0
800019ec:	00000993          	li	s3,0
800019f0:	00000913          	li	s2,0
800019f4:	000d2503          	lw	a0,0(s10)
800019f8:	004d0d13          	add	s10,s10,4
800019fc:	520060ef          	jal	80007f1c <__extendsfdf2>
80001a00:	000a0613          	mv	a2,s4
80001a04:	000a8693          	mv	a3,s5
80001a08:	735030ef          	jal	8000593c <__gedf2>
80001a0c:	02054663          	bltz	a0,80001a38 <width_normalize+0xd0>
80001a10:	028de633          	rem	a2,s11,s0
80001a14:	028dc6b3          	div	a3,s11,s0
80001a18:	01765463          	bge	a2,s7,80001a20 <width_normalize+0xb8>
80001a1c:	00060b93          	mv	s7,a2
80001a20:	0186d463          	bge	a3,s8,80001a28 <width_normalize+0xc0>
80001a24:	00068c13          	mv	s8,a3
80001a28:	00c95463          	bge	s2,a2,80001a30 <width_normalize+0xc8>
80001a2c:	00060913          	mv	s2,a2
80001a30:	00d9d463          	bge	s3,a3,80001a38 <width_normalize+0xd0>
80001a34:	00068993          	mv	s3,a3
80001a38:	001d8d93          	add	s11,s11,1
80001a3c:	fbb49ce3          	bne	s1,s11,800019f4 <width_normalize+0x8c>
80001a40:	13794e63          	blt	s2,s7,80001b7c <width_normalize+0x214>
80001a44:	1389cc63          	blt	s3,s8,80001b7c <width_normalize+0x214>
80001a48:	41790533          	sub	a0,s2,s7
80001a4c:	00150513          	add	a0,a0,1
80001a50:	2d0060ef          	jal	80007d20 <__floatsisf>
80001a54:	00050913          	mv	s2,a0
80001a58:	00040513          	mv	a0,s0
80001a5c:	2c4060ef          	jal	80007d20 <__floatsisf>
80001a60:	00050593          	mv	a1,a0
80001a64:	00090513          	mv	a0,s2
80001a68:	580050ef          	jal	80006fe8 <__divsf3>
80001a6c:	00050793          	mv	a5,a0
80001a70:	41898533          	sub	a0,s3,s8
80001a74:	00150513          	add	a0,a0,1
80001a78:	00078993          	mv	s3,a5
80001a7c:	2a4060ef          	jal	80007d20 <__floatsisf>
80001a80:	00050913          	mv	s2,a0
80001a84:	000b0513          	mv	a0,s6
80001a88:	298060ef          	jal	80007d20 <__floatsisf>
80001a8c:	00050593          	mv	a1,a0
80001a90:	00090513          	mv	a0,s2
80001a94:	554050ef          	jal	80006fe8 <__divsf3>
80001a98:	800127b7          	lui	a5,0x80012
80001a9c:	11c7ad83          	lw	s11,284(a5) # 8001211c <ibuf.0>
80001aa0:	00050a13          	mv	s4,a0
80001aa4:	08905263          	blez	s1,80001b28 <width_normalize+0x1c0>
80001aa8:	000b8513          	mv	a0,s7
80001aac:	274060ef          	jal	80007d20 <__floatsisf>
80001ab0:	00050793          	mv	a5,a0
80001ab4:	000c0513          	mv	a0,s8
80001ab8:	00078c13          	mv	s8,a5
80001abc:	264060ef          	jal	80007d20 <__floatsisf>
80001ac0:	00050b93          	mv	s7,a0
80001ac4:	000d8a93          	mv	s5,s11
80001ac8:	00000913          	li	s2,0
80001acc:	02894533          	div	a0,s2,s0
80001ad0:	004a8a93          	add	s5,s5,4
80001ad4:	24c060ef          	jal	80007d20 <__floatsisf>
80001ad8:	000a0593          	mv	a1,s4
80001adc:	1f5050ef          	jal	800074d0 <__mulsf3>
80001ae0:	000b8593          	mv	a1,s7
80001ae4:	094050ef          	jal	80006b78 <__addsf3>
80001ae8:	00050d13          	mv	s10,a0
80001aec:	02896533          	rem	a0,s2,s0
80001af0:	00190913          	add	s2,s2,1
80001af4:	22c060ef          	jal	80007d20 <__floatsisf>
80001af8:	00098593          	mv	a1,s3
80001afc:	1d5050ef          	jal	800074d0 <__mulsf3>
80001b00:	000c0593          	mv	a1,s8
80001b04:	074050ef          	jal	80006b78 <__addsf3>
80001b08:	00050593          	mv	a1,a0
80001b0c:	000b0713          	mv	a4,s6
80001b10:	00040693          	mv	a3,s0
80001b14:	000d0613          	mv	a2,s10
80001b18:	000c8513          	mv	a0,s9
80001b1c:	c19ff0ef          	jal	80001734 <sample>
80001b20:	feaaae23          	sw	a0,-4(s5)
80001b24:	fb2494e3          	bne	s1,s2,80001acc <width_normalize+0x164>
80001b28:	00c12603          	lw	a2,12(sp)
80001b2c:	000d8593          	mv	a1,s11
80001b30:	000c8513          	mv	a0,s9
80001b34:	450010ef          	jal	80002f84 <memcpy>
80001b38:	800127b7          	lui	a5,0x80012
80001b3c:	04812403          	lw	s0,72(sp)
80001b40:	04c12083          	lw	ra,76(sp)
80001b44:	04412483          	lw	s1,68(sp)
80001b48:	04012903          	lw	s2,64(sp)
80001b4c:	03c12983          	lw	s3,60(sp)
80001b50:	03812a03          	lw	s4,56(sp)
80001b54:	03412a83          	lw	s5,52(sp)
80001b58:	03012b03          	lw	s6,48(sp)
80001b5c:	02c12b83          	lw	s7,44(sp)
80001b60:	02812c03          	lw	s8,40(sp)
80001b64:	02412c83          	lw	s9,36(sp)
80001b68:	02012d03          	lw	s10,32(sp)
80001b6c:	01c12d83          	lw	s11,28(sp)
80001b70:	11c7a503          	lw	a0,284(a5) # 8001211c <ibuf.0>
80001b74:	05010113          	add	sp,sp,80
80001b78:	0040106f          	j	80002b7c <free>
80001b7c:	04c12083          	lw	ra,76(sp)
80001b80:	04812403          	lw	s0,72(sp)
80001b84:	04412483          	lw	s1,68(sp)
80001b88:	04012903          	lw	s2,64(sp)
80001b8c:	03c12983          	lw	s3,60(sp)
80001b90:	03812a03          	lw	s4,56(sp)
80001b94:	03412a83          	lw	s5,52(sp)
80001b98:	03012b03          	lw	s6,48(sp)
80001b9c:	02c12b83          	lw	s7,44(sp)
80001ba0:	02812c03          	lw	s8,40(sp)
80001ba4:	02412c83          	lw	s9,36(sp)
80001ba8:	02012d03          	lw	s10,32(sp)
80001bac:	01c12d83          	lw	s11,28(sp)
80001bb0:	05010113          	add	sp,sp,80
80001bb4:	00008067          	ret
80001bb8:	80012537          	lui	a0,0x80012
80001bbc:	c3850513          	add	a0,a0,-968 # 80011c38 <const_ff+0x238>
80001bc0:	425000ef          	jal	800027e4 <printf>
80001bc4:	fff00513          	li	a0,-1
80001bc8:	641000ef          	jal	80002a08 <exit>
80001bcc:	e09042e3          	bgtz	s1,800019d0 <width_normalize+0x68>
80001bd0:	000b0c13          	mv	s8,s6
80001bd4:	00040b93          	mv	s7,s0
80001bd8:	00000993          	li	s3,0
80001bdc:	00000913          	li	s2,0
80001be0:	e61ff06f          	j	80001a40 <width_normalize+0xd8>

80001be4 <read_images>:
80001be4:	fb010113          	add	sp,sp,-80
80001be8:	04812423          	sw	s0,72(sp)
80001bec:	80012437          	lui	s0,0x80012
80001bf0:	03812423          	sw	s8,40(sp)
80001bf4:	00058c13          	mv	s8,a1
80001bf8:	0ec42583          	lw	a1,236(s0) # 800120ec <fbuf>
80001bfc:	04112623          	sw	ra,76(sp)
80001c00:	04912223          	sw	s1,68(sp)
80001c04:	03312e23          	sw	s3,60(sp)
80001c08:	00068493          	mv	s1,a3
80001c0c:	03412c23          	sw	s4,56(sp)
80001c10:	03912223          	sw	s9,36(sp)
80001c14:	00d12423          	sw	a3,8(sp)
80001c18:	00060c93          	mv	s9,a2
80001c1c:	05212023          	sw	s2,64(sp)
80001c20:	03512a23          	sw	s5,52(sp)
80001c24:	03612823          	sw	s6,48(sp)
80001c28:	03712623          	sw	s7,44(sp)
80001c2c:	03a12023          	sw	s10,32(sp)
80001c30:	01b12e23          	sw	s11,28(sp)
80001c34:	2c1010ef          	jal	800036f4 <read_file>
80001c38:	0ec42983          	lw	s3,236(s0)
80001c3c:	0049c783          	lbu	a5,4(s3)
80001c40:	0059c683          	lbu	a3,5(s3)
80001c44:	0079c603          	lbu	a2,7(s3)
80001c48:	0069c703          	lbu	a4,6(s3)
80001c4c:	01069693          	sll	a3,a3,0x10
80001c50:	01879793          	sll	a5,a5,0x18
80001c54:	00d7e7b3          	or	a5,a5,a3
80001c58:	00c7e7b3          	or	a5,a5,a2
80001c5c:	00871713          	sll	a4,a4,0x8
80001c60:	00e7e7b3          	or	a5,a5,a4
80001c64:	00fc2023          	sw	a5,0(s8)
80001c68:	0089c783          	lbu	a5,8(s3)
80001c6c:	0099c683          	lbu	a3,9(s3)
80001c70:	00b9c603          	lbu	a2,11(s3)
80001c74:	00a9c703          	lbu	a4,10(s3)
80001c78:	01069693          	sll	a3,a3,0x10
80001c7c:	01879793          	sll	a5,a5,0x18
80001c80:	00d7e7b3          	or	a5,a5,a3
80001c84:	00c7e7b3          	or	a5,a5,a2
80001c88:	00871713          	sll	a4,a4,0x8
80001c8c:	00e7e7b3          	or	a5,a5,a4
80001c90:	00fca023          	sw	a5,0(s9)
80001c94:	00c9ca03          	lbu	s4,12(s3)
80001c98:	00d9c703          	lbu	a4,13(s3)
80001c9c:	00f9c683          	lbu	a3,15(s3)
80001ca0:	00e9c783          	lbu	a5,14(s3)
80001ca4:	01071713          	sll	a4,a4,0x10
80001ca8:	018a1a13          	sll	s4,s4,0x18
80001cac:	00ea6a33          	or	s4,s4,a4
80001cb0:	00da6a33          	or	s4,s4,a3
80001cb4:	00879793          	sll	a5,a5,0x8
80001cb8:	00fa6a33          	or	s4,s4,a5
80001cbc:	0144a023          	sw	s4,0(s1)
80001cc0:	000c2503          	lw	a0,0(s8)
80001cc4:	000ca783          	lw	a5,0(s9)
80001cc8:	00251513          	sll	a0,a0,0x2
80001ccc:	02fa0a33          	mul	s4,s4,a5
80001cd0:	585000ef          	jal	80002a54 <malloc>
80001cd4:	000c2783          	lw	a5,0(s8)
80001cd8:	00a12623          	sw	a0,12(sp)
80001cdc:	08f05263          	blez	a5,80001d60 <read_images+0x17c>
80001ce0:	800087b7          	lui	a5,0x80008
80001ce4:	0847a483          	lw	s1,132(a5) # 80008084 <__clzsi2+0x54>
80001ce8:	01098993          	add	s3,s3,16
80001cec:	002a1b93          	sll	s7,s4,0x2
80001cf0:	00050b13          	mv	s6,a0
80001cf4:	00000a93          	li	s5,0
80001cf8:	000b8513          	mv	a0,s7
80001cfc:	559000ef          	jal	80002a54 <malloc>
80001d00:	00ab2023          	sw	a0,0(s6)
80001d04:	00050913          	mv	s2,a0
80001d08:	03405a63          	blez	s4,80001d3c <read_images+0x158>
80001d0c:	00050d13          	mv	s10,a0
80001d10:	00ab8433          	add	s0,s7,a0
80001d14:	00098d93          	mv	s11,s3
80001d18:	000dc503          	lbu	a0,0(s11)
80001d1c:	004d0d13          	add	s10,s10,4
80001d20:	001d8d93          	add	s11,s11,1
80001d24:	110060ef          	jal	80007e34 <__floatunsisf>
80001d28:	00048593          	mv	a1,s1
80001d2c:	2bc050ef          	jal	80006fe8 <__divsf3>
80001d30:	fead2e23          	sw	a0,-4(s10)
80001d34:	ffa412e3          	bne	s0,s10,80001d18 <read_images+0x134>
80001d38:	014989b3          	add	s3,s3,s4
80001d3c:	00812783          	lw	a5,8(sp)
80001d40:	000ca603          	lw	a2,0(s9)
80001d44:	00090513          	mv	a0,s2
80001d48:	0007a583          	lw	a1,0(a5)
80001d4c:	001a8a93          	add	s5,s5,1
80001d50:	004b0b13          	add	s6,s6,4
80001d54:	c15ff0ef          	jal	80001968 <width_normalize>
80001d58:	000c2783          	lw	a5,0(s8)
80001d5c:	f8facee3          	blt	s5,a5,80001cf8 <read_images+0x114>
80001d60:	04c12083          	lw	ra,76(sp)
80001d64:	04812403          	lw	s0,72(sp)
80001d68:	00c12503          	lw	a0,12(sp)
80001d6c:	04412483          	lw	s1,68(sp)
80001d70:	04012903          	lw	s2,64(sp)
80001d74:	03c12983          	lw	s3,60(sp)
80001d78:	03812a03          	lw	s4,56(sp)
80001d7c:	03412a83          	lw	s5,52(sp)
80001d80:	03012b03          	lw	s6,48(sp)
80001d84:	02c12b83          	lw	s7,44(sp)
80001d88:	02812c03          	lw	s8,40(sp)
80001d8c:	02412c83          	lw	s9,36(sp)
80001d90:	02012d03          	lw	s10,32(sp)
80001d94:	01c12d83          	lw	s11,28(sp)
80001d98:	05010113          	add	sp,sp,80
80001d9c:	00008067          	ret

80001da0 <read_labels>:
80001da0:	ff010113          	add	sp,sp,-16
80001da4:	01212023          	sw	s2,0(sp)
80001da8:	80012937          	lui	s2,0x80012
80001dac:	0ec92583          	lw	a1,236(s2) # 800120ec <fbuf>
80001db0:	00112623          	sw	ra,12(sp)
80001db4:	00812423          	sw	s0,8(sp)
80001db8:	00912223          	sw	s1,4(sp)
80001dbc:	139010ef          	jal	800036f4 <read_file>
80001dc0:	ff850413          	add	s0,a0,-8
80001dc4:	0ff47413          	zext.b	s0,s0
80001dc8:	00040513          	mv	a0,s0
80001dcc:	489000ef          	jal	80002a54 <malloc>
80001dd0:	00050493          	mv	s1,a0
80001dd4:	02050a63          	beqz	a0,80001e08 <read_labels+0x68>
80001dd8:	0ec92583          	lw	a1,236(s2)
80001ddc:	00040613          	mv	a2,s0
80001de0:	00048513          	mv	a0,s1
80001de4:	00858593          	add	a1,a1,8
80001de8:	19c010ef          	jal	80002f84 <memcpy>
80001dec:	00c12083          	lw	ra,12(sp)
80001df0:	00812403          	lw	s0,8(sp)
80001df4:	00012903          	lw	s2,0(sp)
80001df8:	00048513          	mv	a0,s1
80001dfc:	00412483          	lw	s1,4(sp)
80001e00:	01010113          	add	sp,sp,16
80001e04:	00008067          	ret
80001e08:	80012537          	lui	a0,0x80012
80001e0c:	c5c50513          	add	a0,a0,-932 # 80011c5c <const_ff+0x25c>
80001e10:	1d5000ef          	jal	800027e4 <printf>
80001e14:	fff00513          	li	a0,-1
80001e18:	3f1000ef          	jal	80002a08 <exit>
80001e1c:	fbdff06f          	j	80001dd8 <read_labels+0x38>

80001e20 <read_weights>:
80001e20:	fe010113          	add	sp,sp,-32
80001e24:	01312623          	sw	s3,12(sp)
80001e28:	800129b7          	lui	s3,0x80012
80001e2c:	01212823          	sw	s2,16(sp)
80001e30:	00058913          	mv	s2,a1
80001e34:	0ec9a583          	lw	a1,236(s3) # 800120ec <fbuf>
80001e38:	00812c23          	sw	s0,24(sp)
80001e3c:	00912a23          	sw	s1,20(sp)
80001e40:	01412423          	sw	s4,8(sp)
80001e44:	00112e23          	sw	ra,28(sp)
80001e48:	00060493          	mv	s1,a2
80001e4c:	0a9010ef          	jal	800036f4 <read_file>
80001e50:	0ec9a583          	lw	a1,236(s3)
80001e54:	00050a13          	mv	s4,a0
80001e58:	0005a783          	lw	a5,0(a1)
80001e5c:	00458413          	add	s0,a1,4
80001e60:	00f92023          	sw	a5,0(s2)
80001e64:	08f05863          	blez	a5,80001ef4 <read_weights+0xd4>
80001e68:	00048793          	mv	a5,s1
80001e6c:	00000713          	li	a4,0
80001e70:	00042683          	lw	a3,0(s0)
80001e74:	00170713          	add	a4,a4,1
80001e78:	00440413          	add	s0,s0,4
80001e7c:	00d7a023          	sw	a3,0(a5)
80001e80:	00092683          	lw	a3,0(s2)
80001e84:	00478793          	add	a5,a5,4
80001e88:	fed744e3          	blt	a4,a3,80001e70 <read_weights+0x50>
80001e8c:	40b40533          	sub	a0,s0,a1
80001e90:	40aa0533          	sub	a0,s4,a0
80001e94:	3c1000ef          	jal	80002a54 <malloc>
80001e98:	00050493          	mv	s1,a0
80001e9c:	04050063          	beqz	a0,80001edc <read_weights+0xbc>
80001ea0:	0ec9a783          	lw	a5,236(s3)
80001ea4:	00040593          	mv	a1,s0
80001ea8:	00048513          	mv	a0,s1
80001eac:	40f40433          	sub	s0,s0,a5
80001eb0:	408a0633          	sub	a2,s4,s0
80001eb4:	0d0010ef          	jal	80002f84 <memcpy>
80001eb8:	01c12083          	lw	ra,28(sp)
80001ebc:	01812403          	lw	s0,24(sp)
80001ec0:	01012903          	lw	s2,16(sp)
80001ec4:	00c12983          	lw	s3,12(sp)
80001ec8:	00812a03          	lw	s4,8(sp)
80001ecc:	00048513          	mv	a0,s1
80001ed0:	01412483          	lw	s1,20(sp)
80001ed4:	02010113          	add	sp,sp,32
80001ed8:	00008067          	ret
80001edc:	80012537          	lui	a0,0x80012
80001ee0:	c7c50513          	add	a0,a0,-900 # 80011c7c <const_ff+0x27c>
80001ee4:	101000ef          	jal	800027e4 <printf>
80001ee8:	fff00513          	li	a0,-1
80001eec:	31d000ef          	jal	80002a08 <exit>
80001ef0:	fb1ff06f          	j	80001ea0 <read_weights+0x80>
80001ef4:	00400513          	li	a0,4
80001ef8:	f99ff06f          	j	80001e90 <read_weights+0x70>

80001efc <crt0>:
80001efc:	ff010113          	add	sp,sp,-16
80001f00:	00112623          	sw	ra,12(sp)
80001f04:	800122b7          	lui	t0,0x80012
80001f08:	1222a023          	sw	sp,288(t0) # 80012120 <sp_store>
80001f0c:	800122b7          	lui	t0,0x80012
80001f10:	0f02a103          	lw	sp,240(t0) # 800120f0 <stack_top>
80001f14:	8ecff0ef          	jal	80001000 <main>
80001f18:	800122b7          	lui	t0,0x80012
80001f1c:	1202a103          	lw	sp,288(t0) # 80012120 <sp_store>
80001f20:	00c12083          	lw	ra,12(sp)
80001f24:	01010113          	add	sp,sp,16
80001f28:	00008067          	ret

80001f2c <getchar>:
80001f2c:	ff010113          	add	sp,sp,-16
80001f30:	00112623          	sw	ra,12(sp)
80001f34:	284010ef          	jal	800031b8 <inbyte>
80001f38:	00c12083          	lw	ra,12(sp)
80001f3c:	01010113          	add	sp,sp,16
80001f40:	00008067          	ret

80001f44 <putchar>:
80001f44:	ff010113          	add	sp,sp,-16
80001f48:	00812423          	sw	s0,8(sp)
80001f4c:	00050413          	mv	s0,a0
80001f50:	0ff57513          	zext.b	a0,a0
80001f54:	00112623          	sw	ra,12(sp)
80001f58:	27c010ef          	jal	800031d4 <outbyte>
80001f5c:	00c12083          	lw	ra,12(sp)
80001f60:	00040513          	mv	a0,s0
80001f64:	00812403          	lw	s0,8(sp)
80001f68:	01010113          	add	sp,sp,16
80001f6c:	00008067          	ret

80001f70 <fputs>:
80001f70:	800127b7          	lui	a5,0x80012
80001f74:	0f87a783          	lw	a5,248(a5) # 800120f8 <stdout>
80001f78:	ff010113          	add	sp,sp,-16
80001f7c:	00112623          	sw	ra,12(sp)
80001f80:	00812423          	sw	s0,8(sp)
80001f84:	04b78263          	beq	a5,a1,80001fc8 <fputs+0x58>
80001f88:	80012437          	lui	s0,0x80012
80001f8c:	00a00513          	li	a0,10
80001f90:	c9c40413          	add	s0,s0,-868 # 80011c9c <const_ff+0x29c>
80001f94:	00140413          	add	s0,s0,1
80001f98:	23c010ef          	jal	800031d4 <outbyte>
80001f9c:	00044503          	lbu	a0,0(s0)
80001fa0:	fe051ae3          	bnez	a0,80001f94 <fputs+0x24>
80001fa4:	00a00513          	li	a0,10
80001fa8:	22c010ef          	jal	800031d4 <outbyte>
80001fac:	00a00513          	li	a0,10
80001fb0:	224010ef          	jal	800031d4 <outbyte>
80001fb4:	00c12083          	lw	ra,12(sp)
80001fb8:	00812403          	lw	s0,8(sp)
80001fbc:	00a00513          	li	a0,10
80001fc0:	01010113          	add	sp,sp,16
80001fc4:	00008067          	ret
80001fc8:	00050413          	mv	s0,a0
80001fcc:	00054503          	lbu	a0,0(a0)
80001fd0:	fc050ee3          	beqz	a0,80001fac <fputs+0x3c>
80001fd4:	00140413          	add	s0,s0,1
80001fd8:	1fc010ef          	jal	800031d4 <outbyte>
80001fdc:	00044503          	lbu	a0,0(s0)
80001fe0:	fe051ae3          	bnez	a0,80001fd4 <fputs+0x64>
80001fe4:	00a00513          	li	a0,10
80001fe8:	1ec010ef          	jal	800031d4 <outbyte>
80001fec:	00c12083          	lw	ra,12(sp)
80001ff0:	00812403          	lw	s0,8(sp)
80001ff4:	00a00513          	li	a0,10
80001ff8:	01010113          	add	sp,sp,16
80001ffc:	00008067          	ret

80002000 <fgets>:
80002000:	800127b7          	lui	a5,0x80012
80002004:	0fc7a783          	lw	a5,252(a5) # 800120fc <stdin>
80002008:	fe010113          	add	sp,sp,-32
8000200c:	00112e23          	sw	ra,28(sp)
80002010:	00812c23          	sw	s0,24(sp)
80002014:	00912a23          	sw	s1,20(sp)
80002018:	01212823          	sw	s2,16(sp)
8000201c:	01312623          	sw	s3,12(sp)
80002020:	01412423          	sw	s4,8(sp)
80002024:	06c79663          	bne	a5,a2,80002090 <fgets+0x90>
80002028:	00050493          	mv	s1,a0
8000202c:	00050413          	mv	s0,a0
80002030:	00a00913          	li	s2,10
80002034:	00d00993          	li	s3,13
80002038:	00b50a33          	add	s4,a0,a1
8000203c:	00059c63          	bnez	a1,80002054 <fgets+0x54>
80002040:	0200006f          	j	80002060 <fgets+0x60>
80002044:	01350e63          	beq	a0,s3,80002060 <fgets+0x60>
80002048:	00140413          	add	s0,s0,1
8000204c:	188010ef          	jal	800031d4 <outbyte>
80002050:	01440863          	beq	s0,s4,80002060 <fgets+0x60>
80002054:	164010ef          	jal	800031b8 <inbyte>
80002058:	00a40023          	sb	a0,0(s0)
8000205c:	ff2514e3          	bne	a0,s2,80002044 <fgets+0x44>
80002060:	00a00513          	li	a0,10
80002064:	170010ef          	jal	800031d4 <outbyte>
80002068:	00040023          	sb	zero,0(s0)
8000206c:	01c12083          	lw	ra,28(sp)
80002070:	01812403          	lw	s0,24(sp)
80002074:	01012903          	lw	s2,16(sp)
80002078:	00c12983          	lw	s3,12(sp)
8000207c:	00812a03          	lw	s4,8(sp)
80002080:	00048513          	mv	a0,s1
80002084:	01412483          	lw	s1,20(sp)
80002088:	02010113          	add	sp,sp,32
8000208c:	00008067          	ret
80002090:	80012437          	lui	s0,0x80012
80002094:	00a00513          	li	a0,10
80002098:	cc840413          	add	s0,s0,-824 # 80011cc8 <const_ff+0x2c8>
8000209c:	00140413          	add	s0,s0,1
800020a0:	134010ef          	jal	800031d4 <outbyte>
800020a4:	00044503          	lbu	a0,0(s0)
800020a8:	fe051ae3          	bnez	a0,8000209c <fgets+0x9c>
800020ac:	00a00513          	li	a0,10
800020b0:	124010ef          	jal	800031d4 <outbyte>
800020b4:	01c12083          	lw	ra,28(sp)
800020b8:	01812403          	lw	s0,24(sp)
800020bc:	01412483          	lw	s1,20(sp)
800020c0:	01012903          	lw	s2,16(sp)
800020c4:	00c12983          	lw	s3,12(sp)
800020c8:	00812a03          	lw	s4,8(sp)
800020cc:	00000513          	li	a0,0
800020d0:	02010113          	add	sp,sp,32
800020d4:	00008067          	ret

800020d8 <putd>:
800020d8:	fd010113          	add	sp,sp,-48
800020dc:	02912223          	sw	s1,36(sp)
800020e0:	02112623          	sw	ra,44(sp)
800020e4:	02812423          	sw	s0,40(sp)
800020e8:	03212023          	sw	s2,32(sp)
800020ec:	01312e23          	sw	s3,28(sp)
800020f0:	01412c23          	sw	s4,24(sp)
800020f4:	00000493          	li	s1,0
800020f8:	00069663          	bnez	a3,80002104 <putd+0x2c>
800020fc:	00068493          	mv	s1,a3
80002100:	10054e63          	bltz	a0,8000221c <putd+0x144>
80002104:	3b9ad737          	lui	a4,0x3b9ad
80002108:	00a00813          	li	a6,10
8000210c:	00000993          	li	s3,0
80002110:	00100913          	li	s2,1
80002114:	a0070713          	add	a4,a4,-1536 # 3b9aca00 <__heap_size+0x3b7aca00>
80002118:	00a00893          	li	a7,10
8000211c:	0300006f          	j	8000214c <putd+0x74>
80002120:	02f576b3          	remu	a3,a0,a5
80002124:	00000913          	li	s2,0
80002128:	02f557b3          	divu	a5,a0,a5
8000212c:	00068513          	mv	a0,a3
80002130:	01098693          	add	a3,s3,16
80002134:	002686b3          	add	a3,a3,sp
80002138:	00198993          	add	s3,s3,1
8000213c:	03078793          	add	a5,a5,48
80002140:	fef68823          	sb	a5,-16(a3)
80002144:	fff80813          	add	a6,a6,-1
80002148:	00080e63          	beqz	a6,80002164 <putd+0x8c>
8000214c:	00070793          	mv	a5,a4
80002150:	03175733          	divu	a4,a4,a7
80002154:	fcf576e3          	bgeu	a0,a5,80002120 <putd+0x48>
80002158:	fe0916e3          	bnez	s2,80002144 <putd+0x6c>
8000215c:	00050693          	mv	a3,a0
80002160:	fc5ff06f          	j	80002124 <putd+0x4c>
80002164:	0a091663          	bnez	s2,80002210 <putd+0x138>
80002168:	00014783          	lbu	a5,0(sp)
8000216c:	00098913          	mv	s2,s3
80002170:	00f10023          	sb	a5,0(sp)
80002174:	01098793          	add	a5,s3,16
80002178:	002787b3          	add	a5,a5,sp
8000217c:	fe078823          	sb	zero,-16(a5)
80002180:	fff58413          	add	s0,a1,-1
80002184:	04061e63          	bnez	a2,800021e0 <putd+0x108>
80002188:	fff98a13          	add	s4,s3,-1
8000218c:	01344a63          	blt	s0,s3,800021a0 <putd+0xc8>
80002190:	fff40413          	add	s0,s0,-1
80002194:	02000513          	li	a0,32
80002198:	03c010ef          	jal	800031d4 <outbyte>
8000219c:	fe8a1ae3          	bne	s4,s0,80002190 <putd+0xb8>
800021a0:	0a049063          	bnez	s1,80002240 <putd+0x168>
800021a4:	00010413          	mv	s0,sp
800021a8:	008904b3          	add	s1,s2,s0
800021ac:	00090a63          	beqz	s2,800021c0 <putd+0xe8>
800021b0:	00044503          	lbu	a0,0(s0)
800021b4:	00140413          	add	s0,s0,1
800021b8:	01c010ef          	jal	800031d4 <outbyte>
800021bc:	fe849ae3          	bne	s1,s0,800021b0 <putd+0xd8>
800021c0:	02c12083          	lw	ra,44(sp)
800021c4:	02812403          	lw	s0,40(sp)
800021c8:	02412483          	lw	s1,36(sp)
800021cc:	02012903          	lw	s2,32(sp)
800021d0:	01c12983          	lw	s3,28(sp)
800021d4:	01812a03          	lw	s4,24(sp)
800021d8:	03010113          	add	sp,sp,48
800021dc:	00008067          	ret
800021e0:	04049663          	bnez	s1,8000222c <putd+0x154>
800021e4:	fff98493          	add	s1,s3,-1
800021e8:	fb344ee3          	blt	s0,s3,800021a4 <putd+0xcc>
800021ec:	fff40413          	add	s0,s0,-1
800021f0:	03000513          	li	a0,48
800021f4:	7e1000ef          	jal	800031d4 <outbyte>
800021f8:	fa8486e3          	beq	s1,s0,800021a4 <putd+0xcc>
800021fc:	fff40413          	add	s0,s0,-1
80002200:	03000513          	li	a0,48
80002204:	7d1000ef          	jal	800031d4 <outbyte>
80002208:	fe8492e3          	bne	s1,s0,800021ec <putd+0x114>
8000220c:	f99ff06f          	j	800021a4 <putd+0xcc>
80002210:	03000793          	li	a5,48
80002214:	00100993          	li	s3,1
80002218:	f59ff06f          	j	80002170 <putd+0x98>
8000221c:	fff58593          	add	a1,a1,-1
80002220:	40a00533          	neg	a0,a0
80002224:	00100493          	li	s1,1
80002228:	eddff06f          	j	80002104 <putd+0x2c>
8000222c:	02d00513          	li	a0,45
80002230:	7a5000ef          	jal	800031d4 <outbyte>
80002234:	fff98493          	add	s1,s3,-1
80002238:	fb345ae3          	bge	s0,s3,800021ec <putd+0x114>
8000223c:	f69ff06f          	j	800021a4 <putd+0xcc>
80002240:	02d00513          	li	a0,45
80002244:	791000ef          	jal	800031d4 <outbyte>
80002248:	f5dff06f          	j	800021a4 <putd+0xcc>

8000224c <putx>:
8000224c:	01f6d793          	srl	a5,a3,0x1f
80002250:	00f68833          	add	a6,a3,a5
80002254:	00187813          	and	a6,a6,1
80002258:	40f80833          	sub	a6,a6,a5
8000225c:	800127b7          	lui	a5,0x80012
80002260:	fc010113          	add	sp,sp,-64
80002264:	cf478793          	add	a5,a5,-780 # 80011cf4 <const_ff+0x2f4>
80002268:	00281813          	sll	a6,a6,0x2
8000226c:	00f12623          	sw	a5,12(sp)
80002270:	800127b7          	lui	a5,0x80012
80002274:	d0878793          	add	a5,a5,-760 # 80011d08 <const_ff+0x308>
80002278:	02080713          	add	a4,a6,32
8000227c:	02812c23          	sw	s0,56(sp)
80002280:	03212823          	sw	s2,48(sp)
80002284:	00f12823          	sw	a5,16(sp)
80002288:	02112e23          	sw	ra,60(sp)
8000228c:	02912a23          	sw	s1,52(sp)
80002290:	03312623          	sw	s3,44(sp)
80002294:	00060913          	mv	s2,a2
80002298:	01c00793          	li	a5,28
8000229c:	00000413          	li	s0,0
800022a0:	00100e13          	li	t3,1
800022a4:	00270833          	add	a6,a4,sp
800022a8:	02000313          	li	t1,32
800022ac:	ffc00893          	li	a7,-4
800022b0:	0300006f          	j	800022e0 <putx+0x94>
800022b4:	00e65533          	srl	a0,a2,a4
800022b8:	00000e13          	li	t3,0
800022bc:	fec82703          	lw	a4,-20(a6)
800022c0:	ffc78793          	add	a5,a5,-4
800022c4:	00d70733          	add	a4,a4,a3
800022c8:	00074683          	lbu	a3,0(a4)
800022cc:	02040713          	add	a4,s0,32
800022d0:	00270733          	add	a4,a4,sp
800022d4:	fed70a23          	sb	a3,-12(a4)
800022d8:	00140413          	add	s0,s0,1
800022dc:	03178263          	beq	a5,a7,80002300 <putx+0xb4>
800022e0:	40f30733          	sub	a4,t1,a5
800022e4:	00f556b3          	srl	a3,a0,a5
800022e8:	00e51633          	sll	a2,a0,a4
800022ec:	fc0694e3          	bnez	a3,800022b4 <putx+0x68>
800022f0:	fc0e06e3          	beqz	t3,800022bc <putx+0x70>
800022f4:	fc0914e3          	bnez	s2,800022bc <putx+0x70>
800022f8:	ffc78793          	add	a5,a5,-4
800022fc:	ff1792e3          	bne	a5,a7,800022e0 <putx+0x94>
80002300:	02040793          	add	a5,s0,32
80002304:	002787b3          	add	a5,a5,sp
80002308:	fe078a23          	sb	zero,-12(a5)
8000230c:	fff58493          	add	s1,a1,-1
80002310:	0284c063          	blt	s1,s0,80002330 <putx+0xe4>
80002314:	fff40993          	add	s3,s0,-1
80002318:	03000513          	li	a0,48
8000231c:	00091463          	bnez	s2,80002324 <putx+0xd8>
80002320:	02000513          	li	a0,32
80002324:	fff48493          	add	s1,s1,-1
80002328:	6ad000ef          	jal	800031d4 <outbyte>
8000232c:	fe9996e3          	bne	s3,s1,80002318 <putx+0xcc>
80002330:	00040e63          	beqz	s0,8000234c <putx+0x100>
80002334:	01410493          	add	s1,sp,20
80002338:	00940433          	add	s0,s0,s1
8000233c:	0004c503          	lbu	a0,0(s1)
80002340:	00148493          	add	s1,s1,1
80002344:	691000ef          	jal	800031d4 <outbyte>
80002348:	fe849ae3          	bne	s1,s0,8000233c <putx+0xf0>
8000234c:	03c12083          	lw	ra,60(sp)
80002350:	03812403          	lw	s0,56(sp)
80002354:	03412483          	lw	s1,52(sp)
80002358:	03012903          	lw	s2,48(sp)
8000235c:	02c12983          	lw	s3,44(sp)
80002360:	04010113          	add	sp,sp,64
80002364:	00008067          	ret

80002368 <putld>:
80002368:	f9010113          	add	sp,sp,-112
8000236c:	06812423          	sw	s0,104(sp)
80002370:	07212023          	sw	s2,96(sp)
80002374:	05612823          	sw	s6,80(sp)
80002378:	03b12e23          	sw	s11,60(sp)
8000237c:	06112623          	sw	ra,108(sp)
80002380:	06912223          	sw	s1,100(sp)
80002384:	05312e23          	sw	s3,92(sp)
80002388:	05412c23          	sw	s4,88(sp)
8000238c:	05512a23          	sw	s5,84(sp)
80002390:	05712623          	sw	s7,76(sp)
80002394:	05812423          	sw	s8,72(sp)
80002398:	05912223          	sw	s9,68(sp)
8000239c:	05a12023          	sw	s10,64(sp)
800023a0:	00d12623          	sw	a3,12(sp)
800023a4:	00050d93          	mv	s11,a0
800023a8:	00058413          	mv	s0,a1
800023ac:	00060913          	mv	s2,a2
800023b0:	00000b13          	li	s6,0
800023b4:	00071663          	bnez	a4,800023c0 <putld+0x58>
800023b8:	00070b13          	mv	s6,a4
800023bc:	1c05ca63          	bltz	a1,80002590 <putld+0x228>
800023c0:	ccccd9b7          	lui	s3,0xccccd
800023c4:	800087b7          	lui	a5,0x80008
800023c8:	ccd98c93          	add	s9,s3,-819 # cccccccd <__freertos_irq_stack_top+0x4caba39d>
800023cc:	0947ac03          	lw	s8,148(a5) # 80008094 <__clzsi2+0x64>
800023d0:	01200d13          	li	s10,18
800023d4:	00000493          	li	s1,0
800023d8:	00100a13          	li	s4,1
800023dc:	5d8a0bb7          	lui	s7,0x5d8a0
800023e0:	00500a93          	li	s5,5
800023e4:	ccc98993          	add	s3,s3,-820
800023e8:	04c0006f          	j	80002434 <putld+0xcc>
800023ec:	02a687b3          	mul	a5,a3,a0
800023f0:	02a70733          	mul	a4,a4,a0
800023f4:	40fd87b3          	sub	a5,s11,a5
800023f8:	00fdb5b3          	sltu	a1,s11,a5
800023fc:	00078d93          	mv	s11,a5
80002400:	02d536b3          	mulhu	a3,a0,a3
80002404:	00d70733          	add	a4,a4,a3
80002408:	40e40733          	sub	a4,s0,a4
8000240c:	40b70433          	sub	s0,a4,a1
80002410:	02048793          	add	a5,s1,32
80002414:	01010713          	add	a4,sp,16
80002418:	00e787b3          	add	a5,a5,a4
8000241c:	03050513          	add	a0,a0,48
80002420:	fea78423          	sb	a0,-24(a5)
80002424:	fffd0d13          	add	s10,s10,-1
80002428:	00148493          	add	s1,s1,1
8000242c:	00000a13          	li	s4,0
80002430:	060d0a63          	beqz	s10,800024a4 <putld+0x13c>
80002434:	000b8613          	mv	a2,s7
80002438:	000c0693          	mv	a3,s8
8000243c:	000d8513          	mv	a0,s11
80002440:	00040593          	mv	a1,s0
80002444:	214020ef          	jal	80004658 <__udivdi3>
80002448:	018b87b3          	add	a5,s7,s8
8000244c:	0177b733          	sltu	a4,a5,s7
80002450:	00e787b3          	add	a5,a5,a4
80002454:	0357f7b3          	remu	a5,a5,s5
80002458:	000c0713          	mv	a4,s8
8000245c:	000b8693          	mv	a3,s7
80002460:	40fb87b3          	sub	a5,s7,a5
80002464:	00fbbc33          	sltu	s8,s7,a5
80002468:	41870c33          	sub	s8,a4,s8
8000246c:	033785b3          	mul	a1,a5,s3
80002470:	039c0c33          	mul	s8,s8,s9
80002474:	0397b633          	mulhu	a2,a5,s9
80002478:	00bc0c33          	add	s8,s8,a1
8000247c:	039787b3          	mul	a5,a5,s9
80002480:	00cc0c33          	add	s8,s8,a2
80002484:	01fc1613          	sll	a2,s8,0x1f
80002488:	001c5c13          	srl	s8,s8,0x1
8000248c:	0017d793          	srl	a5,a5,0x1
80002490:	00f66bb3          	or	s7,a2,a5
80002494:	f4051ce3          	bnez	a0,800023ec <putld+0x84>
80002498:	f60a0ce3          	beqz	s4,80002410 <putld+0xa8>
8000249c:	fffd0d13          	add	s10,s10,-1
800024a0:	f80d1ae3          	bnez	s10,80002434 <putld+0xcc>
800024a4:	0c0a1c63          	bnez	s4,8000257c <putld+0x214>
800024a8:	01814783          	lbu	a5,24(sp)
800024ac:	00048993          	mv	s3,s1
800024b0:	41f4da13          	sra	s4,s1,0x1f
800024b4:	00f10c23          	sb	a5,24(sp)
800024b8:	01010713          	add	a4,sp,16
800024bc:	02048793          	add	a5,s1,32
800024c0:	00e787b3          	add	a5,a5,a4
800024c4:	fe078423          	sb	zero,-24(a5)
800024c8:	00c12783          	lw	a5,12(sp)
800024cc:	fff90913          	add	s2,s2,-1
800024d0:	06079e63          	bnez	a5,8000254c <putld+0x1e4>
800024d4:	fff48413          	add	s0,s1,-1
800024d8:	00994a63          	blt	s2,s1,800024ec <putld+0x184>
800024dc:	fff90913          	add	s2,s2,-1
800024e0:	02000513          	li	a0,32
800024e4:	4f1000ef          	jal	800031d4 <outbyte>
800024e8:	ff241ae3          	bne	s0,s2,800024dc <putld+0x174>
800024ec:	0c0b1a63          	bnez	s6,800025c0 <putld+0x258>
800024f0:	01810413          	add	s0,sp,24
800024f4:	0149e7b3          	or	a5,s3,s4
800024f8:	013409b3          	add	s3,s0,s3
800024fc:	00078a63          	beqz	a5,80002510 <putld+0x1a8>
80002500:	00044503          	lbu	a0,0(s0)
80002504:	00140413          	add	s0,s0,1
80002508:	4cd000ef          	jal	800031d4 <outbyte>
8000250c:	ff341ae3          	bne	s0,s3,80002500 <putld+0x198>
80002510:	06c12083          	lw	ra,108(sp)
80002514:	06812403          	lw	s0,104(sp)
80002518:	06412483          	lw	s1,100(sp)
8000251c:	06012903          	lw	s2,96(sp)
80002520:	05c12983          	lw	s3,92(sp)
80002524:	05812a03          	lw	s4,88(sp)
80002528:	05412a83          	lw	s5,84(sp)
8000252c:	05012b03          	lw	s6,80(sp)
80002530:	04c12b83          	lw	s7,76(sp)
80002534:	04812c03          	lw	s8,72(sp)
80002538:	04412c83          	lw	s9,68(sp)
8000253c:	04012d03          	lw	s10,64(sp)
80002540:	03c12d83          	lw	s11,60(sp)
80002544:	07010113          	add	sp,sp,112
80002548:	00008067          	ret
8000254c:	060b1063          	bnez	s6,800025ac <putld+0x244>
80002550:	fff48413          	add	s0,s1,-1
80002554:	f8994ee3          	blt	s2,s1,800024f0 <putld+0x188>
80002558:	fff90913          	add	s2,s2,-1
8000255c:	03000513          	li	a0,48
80002560:	475000ef          	jal	800031d4 <outbyte>
80002564:	f88906e3          	beq	s2,s0,800024f0 <putld+0x188>
80002568:	fff90913          	add	s2,s2,-1
8000256c:	03000513          	li	a0,48
80002570:	465000ef          	jal	800031d4 <outbyte>
80002574:	fe8912e3          	bne	s2,s0,80002558 <putld+0x1f0>
80002578:	f79ff06f          	j	800024f0 <putld+0x188>
8000257c:	00100993          	li	s3,1
80002580:	00000a13          	li	s4,0
80002584:	03000793          	li	a5,48
80002588:	00100493          	li	s1,1
8000258c:	f29ff06f          	j	800024b4 <putld+0x14c>
80002590:	00a037b3          	snez	a5,a0
80002594:	40b00433          	neg	s0,a1
80002598:	fff60913          	add	s2,a2,-1
8000259c:	40f40433          	sub	s0,s0,a5
800025a0:	40a00db3          	neg	s11,a0
800025a4:	00100b13          	li	s6,1
800025a8:	e19ff06f          	j	800023c0 <putld+0x58>
800025ac:	02d00513          	li	a0,45
800025b0:	425000ef          	jal	800031d4 <outbyte>
800025b4:	fff48413          	add	s0,s1,-1
800025b8:	fa9950e3          	bge	s2,s1,80002558 <putld+0x1f0>
800025bc:	f35ff06f          	j	800024f0 <putld+0x188>
800025c0:	02d00513          	li	a0,45
800025c4:	411000ef          	jal	800031d4 <outbyte>
800025c8:	f29ff06f          	j	800024f0 <putld+0x188>

800025cc <putf>:
800025cc:	fc010113          	add	sp,sp,-64
800025d0:	03612023          	sw	s6,32(sp)
800025d4:	01712e23          	sw	s7,28(sp)
800025d8:	01812c23          	sw	s8,24(sp)
800025dc:	01912a23          	sw	s9,20(sp)
800025e0:	01a12823          	sw	s10,16(sp)
800025e4:	02112e23          	sw	ra,60(sp)
800025e8:	02812c23          	sw	s0,56(sp)
800025ec:	02912a23          	sw	s1,52(sp)
800025f0:	03212823          	sw	s2,48(sp)
800025f4:	03312623          	sw	s3,44(sp)
800025f8:	03412423          	sw	s4,40(sp)
800025fc:	03512223          	sw	s5,36(sp)
80002600:	01b12623          	sw	s11,12(sp)
80002604:	00070b13          	mv	s6,a4
80002608:	00050c93          	mv	s9,a0
8000260c:	00058c13          	mv	s8,a1
80002610:	00060b93          	mv	s7,a2
80002614:	00068d13          	mv	s10,a3
80002618:	1ae05863          	blez	a4,800027c8 <putf+0x1fc>
8000261c:	800087b7          	lui	a5,0x80008
80002620:	80008737          	lui	a4,0x80008
80002624:	0a07ad83          	lw	s11,160(a5) # 800080a0 <__clzsi2+0x70>
80002628:	0a47a903          	lw	s2,164(a5)
8000262c:	800087b7          	lui	a5,0x80008
80002630:	09872483          	lw	s1,152(a4) # 80008098 <__clzsi2+0x68>
80002634:	09c72403          	lw	s0,156(a4)
80002638:	0a87aa03          	lw	s4,168(a5) # 800080a8 <__clzsi2+0x78>
8000263c:	0ac7aa83          	lw	s5,172(a5)
80002640:	00000993          	li	s3,0
80002644:	000d8513          	mv	a0,s11
80002648:	00090593          	mv	a1,s2
8000264c:	000a0613          	mv	a2,s4
80002650:	000a8693          	mv	a3,s5
80002654:	421020ef          	jal	80005274 <__divdf3>
80002658:	00050d93          	mv	s11,a0
8000265c:	00058913          	mv	s2,a1
80002660:	00048513          	mv	a0,s1
80002664:	00040593          	mv	a1,s0
80002668:	000a0613          	mv	a2,s4
8000266c:	000a8693          	mv	a3,s5
80002670:	4ec030ef          	jal	80005b5c <__muldf3>
80002674:	00198993          	add	s3,s3,1
80002678:	00050493          	mv	s1,a0
8000267c:	00058413          	mv	s0,a1
80002680:	fd3b12e3          	bne	s6,s3,80002644 <putf+0x78>
80002684:	000c8513          	mv	a0,s9
80002688:	000c0593          	mv	a1,s8
8000268c:	00000613          	li	a2,0
80002690:	00000693          	li	a3,0
80002694:	3b8030ef          	jal	80005a4c <__ledf2>
80002698:	0c054a63          	bltz	a0,8000276c <putf+0x1a0>
8000269c:	00090693          	mv	a3,s2
800026a0:	000d8613          	mv	a2,s11
800026a4:	000c8513          	mv	a0,s9
800026a8:	000c0593          	mv	a1,s8
800026ac:	3dc020ef          	jal	80004a88 <__adddf3>
800026b0:	00058993          	mv	s3,a1
800026b4:	00050a13          	mv	s4,a0
800026b8:	2f4040ef          	jal	800069ac <__fixdfsi>
800026bc:	00050913          	mv	s2,a0
800026c0:	36c040ef          	jal	80006a2c <__floatsidf>
800026c4:	00050613          	mv	a2,a0
800026c8:	00058693          	mv	a3,a1
800026cc:	000a0513          	mv	a0,s4
800026d0:	00098593          	mv	a1,s3
800026d4:	285030ef          	jal	80006158 <__subdf3>
800026d8:	00048613          	mv	a2,s1
800026dc:	00040693          	mv	a3,s0
800026e0:	47c030ef          	jal	80005b5c <__muldf3>
800026e4:	3f0040ef          	jal	80006ad4 <__fixunsdfdi>
800026e8:	00050493          	mv	s1,a0
800026ec:	00058413          	mv	s0,a1
800026f0:	416b8bb3          	sub	s7,s7,s6
800026f4:	417005b3          	neg	a1,s7
800026f8:	41f5d593          	sra	a1,a1,0x1f
800026fc:	fffb8b93          	add	s7,s7,-1 # 5d89ffff <__heap_size+0x5d69ffff>
80002700:	000d0613          	mv	a2,s10
80002704:	00bbf5b3          	and	a1,s7,a1
80002708:	00000693          	li	a3,0
8000270c:	00090513          	mv	a0,s2
80002710:	9c9ff0ef          	jal	800020d8 <putd>
80002714:	02e00513          	li	a0,46
80002718:	2bd000ef          	jal	800031d4 <outbyte>
8000271c:	00040593          	mv	a1,s0
80002720:	03812403          	lw	s0,56(sp)
80002724:	03c12083          	lw	ra,60(sp)
80002728:	03012903          	lw	s2,48(sp)
8000272c:	02c12983          	lw	s3,44(sp)
80002730:	02812a03          	lw	s4,40(sp)
80002734:	02412a83          	lw	s5,36(sp)
80002738:	01c12b83          	lw	s7,28(sp)
8000273c:	01812c03          	lw	s8,24(sp)
80002740:	01412c83          	lw	s9,20(sp)
80002744:	01012d03          	lw	s10,16(sp)
80002748:	00c12d83          	lw	s11,12(sp)
8000274c:	000b0613          	mv	a2,s6
80002750:	00048513          	mv	a0,s1
80002754:	02012b03          	lw	s6,32(sp)
80002758:	03412483          	lw	s1,52(sp)
8000275c:	00100713          	li	a4,1
80002760:	00100693          	li	a3,1
80002764:	04010113          	add	sp,sp,64
80002768:	c01ff06f          	j	80002368 <putld>
8000276c:	000c8613          	mv	a2,s9
80002770:	000c0693          	mv	a3,s8
80002774:	00090593          	mv	a1,s2
80002778:	000d8513          	mv	a0,s11
8000277c:	1dd030ef          	jal	80006158 <__subdf3>
80002780:	00058993          	mv	s3,a1
80002784:	00050a13          	mv	s4,a0
80002788:	224040ef          	jal	800069ac <__fixdfsi>
8000278c:	00050913          	mv	s2,a0
80002790:	29c040ef          	jal	80006a2c <__floatsidf>
80002794:	00050613          	mv	a2,a0
80002798:	00058693          	mv	a3,a1
8000279c:	000a0513          	mv	a0,s4
800027a0:	00098593          	mv	a1,s3
800027a4:	1b5030ef          	jal	80006158 <__subdf3>
800027a8:	00048613          	mv	a2,s1
800027ac:	00040693          	mv	a3,s0
800027b0:	3ac030ef          	jal	80005b5c <__muldf3>
800027b4:	320040ef          	jal	80006ad4 <__fixunsdfdi>
800027b8:	00050493          	mv	s1,a0
800027bc:	00058413          	mv	s0,a1
800027c0:	41200933          	neg	s2,s2
800027c4:	f2dff06f          	j	800026f0 <putf+0x124>
800027c8:	80008737          	lui	a4,0x80008
800027cc:	800087b7          	lui	a5,0x80008
800027d0:	09872483          	lw	s1,152(a4) # 80008098 <__clzsi2+0x68>
800027d4:	09c72403          	lw	s0,156(a4)
800027d8:	0a07ad83          	lw	s11,160(a5) # 800080a0 <__clzsi2+0x70>
800027dc:	0a47a903          	lw	s2,164(a5)
800027e0:	ea5ff06f          	j	80002684 <putf+0xb8>

800027e4 <printf>:
800027e4:	fa010113          	add	sp,sp,-96
800027e8:	02812c23          	sw	s0,56(sp)
800027ec:	04f12a23          	sw	a5,84(sp)
800027f0:	02112e23          	sw	ra,60(sp)
800027f4:	02912a23          	sw	s1,52(sp)
800027f8:	03212823          	sw	s2,48(sp)
800027fc:	03312623          	sw	s3,44(sp)
80002800:	03412423          	sw	s4,40(sp)
80002804:	03512223          	sw	s5,36(sp)
80002808:	03612023          	sw	s6,32(sp)
8000280c:	01712e23          	sw	s7,28(sp)
80002810:	04b12223          	sw	a1,68(sp)
80002814:	04c12423          	sw	a2,72(sp)
80002818:	04d12623          	sw	a3,76(sp)
8000281c:	04e12823          	sw	a4,80(sp)
80002820:	05012c23          	sw	a6,88(sp)
80002824:	05112e23          	sw	a7,92(sp)
80002828:	00050413          	mv	s0,a0
8000282c:	00054503          	lbu	a0,0(a0)
80002830:	04410793          	add	a5,sp,68
80002834:	00f12623          	sw	a5,12(sp)
80002838:	02050a63          	beqz	a0,8000286c <printf+0x88>
8000283c:	800129b7          	lui	s3,0x80012
80002840:	00600493          	li	s1,6
80002844:	02500913          	li	s2,37
80002848:	00900b13          	li	s6,9
8000284c:	02e00a93          	li	s5,46
80002850:	02000a13          	li	s4,32
80002854:	d1c98993          	add	s3,s3,-740 # 80011d1c <const_ff+0x31c>
80002858:	05250263          	beq	a0,s2,8000289c <printf+0xb8>
8000285c:	179000ef          	jal	800031d4 <outbyte>
80002860:	00144503          	lbu	a0,1(s0)
80002864:	00140413          	add	s0,s0,1
80002868:	fe0518e3          	bnez	a0,80002858 <printf+0x74>
8000286c:	03c12083          	lw	ra,60(sp)
80002870:	03812403          	lw	s0,56(sp)
80002874:	03412483          	lw	s1,52(sp)
80002878:	03012903          	lw	s2,48(sp)
8000287c:	02c12983          	lw	s3,44(sp)
80002880:	02812a03          	lw	s4,40(sp)
80002884:	02412a83          	lw	s5,36(sp)
80002888:	02012b03          	lw	s6,32(sp)
8000288c:	01c12b83          	lw	s7,28(sp)
80002890:	00000513          	li	a0,0
80002894:	06010113          	add	sp,sp,96
80002898:	00008067          	ret
8000289c:	00144703          	lbu	a4,1(s0)
800028a0:	00000813          	li	a6,0
800028a4:	00140413          	add	s0,s0,1
800028a8:	fd070793          	add	a5,a4,-48
800028ac:	0ff7f693          	zext.b	a3,a5
800028b0:	0017b613          	seqz	a2,a5
800028b4:	02db6463          	bltu	s6,a3,800028dc <printf+0xf8>
800028b8:	00144703          	lbu	a4,1(s0)
800028bc:	00281593          	sll	a1,a6,0x2
800028c0:	010585b3          	add	a1,a1,a6
800028c4:	00159593          	sll	a1,a1,0x1
800028c8:	00b78833          	add	a6,a5,a1
800028cc:	fd070793          	add	a5,a4,-48
800028d0:	0ff7f693          	zext.b	a3,a5
800028d4:	00140413          	add	s0,s0,1
800028d8:	fedb70e3          	bgeu	s6,a3,800028b8 <printf+0xd4>
800028dc:	f9470713          	add	a4,a4,-108
800028e0:	00173713          	seqz	a4,a4
800028e4:	00e40433          	add	s0,s0,a4
800028e8:	00044503          	lbu	a0,0(s0)
800028ec:	0d550a63          	beq	a0,s5,800029c0 <printf+0x1dc>
800028f0:	fa850793          	add	a5,a0,-88
800028f4:	0ff7f793          	zext.b	a5,a5
800028f8:	f6fa62e3          	bltu	s4,a5,8000285c <printf+0x78>
800028fc:	00279793          	sll	a5,a5,0x2
80002900:	013787b3          	add	a5,a5,s3
80002904:	0007a783          	lw	a5,0(a5)
80002908:	00078067          	jr	a5
8000290c:	00c12783          	lw	a5,12(sp)
80002910:	00000693          	li	a3,0
80002914:	0007a503          	lw	a0,0(a5)
80002918:	00080593          	mv	a1,a6
8000291c:	00478793          	add	a5,a5,4
80002920:	00f12623          	sw	a5,12(sp)
80002924:	929ff0ef          	jal	8000224c <putx>
80002928:	f39ff06f          	j	80002860 <printf+0x7c>
8000292c:	00c12783          	lw	a5,12(sp)
80002930:	00100693          	li	a3,1
80002934:	0007a503          	lw	a0,0(a5)
80002938:	00080593          	mv	a1,a6
8000293c:	00478793          	add	a5,a5,4
80002940:	00f12623          	sw	a5,12(sp)
80002944:	f94ff0ef          	jal	800020d8 <putd>
80002948:	f19ff06f          	j	80002860 <printf+0x7c>
8000294c:	00c12783          	lw	a5,12(sp)
80002950:	0007ab83          	lw	s7,0(a5)
80002954:	00478793          	add	a5,a5,4
80002958:	00f12623          	sw	a5,12(sp)
8000295c:	000bc503          	lbu	a0,0(s7)
80002960:	f00500e3          	beqz	a0,80002860 <printf+0x7c>
80002964:	001b8b93          	add	s7,s7,1
80002968:	06d000ef          	jal	800031d4 <outbyte>
8000296c:	000bc503          	lbu	a0,0(s7)
80002970:	fe051ae3          	bnez	a0,80002964 <printf+0x180>
80002974:	eedff06f          	j	80002860 <printf+0x7c>
80002978:	00c12783          	lw	a5,12(sp)
8000297c:	00060693          	mv	a3,a2
80002980:	00048713          	mv	a4,s1
80002984:	00778793          	add	a5,a5,7
80002988:	ff87f793          	and	a5,a5,-8
8000298c:	0007a503          	lw	a0,0(a5)
80002990:	0047a583          	lw	a1,4(a5)
80002994:	00080613          	mv	a2,a6
80002998:	00878793          	add	a5,a5,8
8000299c:	00f12623          	sw	a5,12(sp)
800029a0:	c2dff0ef          	jal	800025cc <putf>
800029a4:	ebdff06f          	j	80002860 <printf+0x7c>
800029a8:	00c12783          	lw	a5,12(sp)
800029ac:	00000693          	li	a3,0
800029b0:	f85ff06f          	j	80002934 <printf+0x150>
800029b4:	00c12783          	lw	a5,12(sp)
800029b8:	00100693          	li	a3,1
800029bc:	f59ff06f          	j	80002914 <printf+0x130>
800029c0:	00144503          	lbu	a0,1(s0)
800029c4:	00900793          	li	a5,9
800029c8:	00140413          	add	s0,s0,1
800029cc:	fd050713          	add	a4,a0,-48
800029d0:	0ff77693          	zext.b	a3,a4
800029d4:	00000493          	li	s1,0
800029d8:	f0d7ece3          	bltu	a5,a3,800028f0 <printf+0x10c>
800029dc:	00900693          	li	a3,9
800029e0:	00144503          	lbu	a0,1(s0)
800029e4:	00249793          	sll	a5,s1,0x2
800029e8:	009787b3          	add	a5,a5,s1
800029ec:	00179793          	sll	a5,a5,0x1
800029f0:	00f704b3          	add	s1,a4,a5
800029f4:	fd050713          	add	a4,a0,-48
800029f8:	0ff77793          	zext.b	a5,a4
800029fc:	00140413          	add	s0,s0,1
80002a00:	fef6f0e3          	bgeu	a3,a5,800029e0 <printf+0x1fc>
80002a04:	eedff06f          	j	800028f0 <printf+0x10c>

80002a08 <exit>:
80002a08:	fe010113          	add	sp,sp,-32
80002a0c:	00112e23          	sw	ra,28(sp)
80002a10:	00812c23          	sw	s0,24(sp)
80002a14:	02010413          	add	s0,sp,32
80002a18:	fea42623          	sw	a0,-20(s0)
80002a1c:	800127b7          	lui	a5,0x80012
80002a20:	da078513          	add	a0,a5,-608 # 80011da0 <const_ff+0x3a0>
80002a24:	dc1ff0ef          	jal	800027e4 <printf>
80002a28:	fec42583          	lw	a1,-20(s0)
80002a2c:	800127b7          	lui	a5,0x80012
80002a30:	dec78513          	add	a0,a5,-532 # 80011dec <const_ff+0x3ec>
80002a34:	db1ff0ef          	jal	800027e4 <printf>
80002a38:	800127b7          	lui	a5,0x80012
80002a3c:	e1078513          	add	a0,a5,-496 # 80011e10 <const_ff+0x410>
80002a40:	da5ff0ef          	jal	800027e4 <printf>
80002a44:	00300513          	li	a0,3
80002a48:	cfcff0ef          	jal	80001f44 <putchar>
80002a4c:	00000013          	nop
80002a50:	ffdff06f          	j	80002a4c <exit+0x44>

80002a54 <malloc>:
80002a54:	800128b7          	lui	a7,0x80012
80002a58:	80012737          	lui	a4,0x80012
80002a5c:	1188a783          	lw	a5,280(a7) # 80012118 <curr_top>
80002a60:	11472583          	lw	a1,276(a4) # 80012114 <heap_end>
80002a64:	00050813          	mv	a6,a0
80002a68:	08b78c63          	beq	a5,a1,80002b00 <malloc+0xac>
80002a6c:	02b7f263          	bgeu	a5,a1,80002a90 <malloc+0x3c>
80002a70:	0007a703          	lw	a4,0(a5)
80002a74:	00177693          	and	a3,a4,1
80002a78:	40f70633          	sub	a2,a4,a5
80002a7c:	00069463          	bnez	a3,80002a84 <malloc+0x30>
80002a80:	04c86063          	bltu	a6,a2,80002ac0 <malloc+0x6c>
80002a84:	ffe77793          	and	a5,a4,-2
80002a88:	feb7e4e3          	bltu	a5,a1,80002a70 <malloc+0x1c>
80002a8c:	1188a783          	lw	a5,280(a7)
80002a90:	80008737          	lui	a4,0x80008
80002a94:	0b472703          	lw	a4,180(a4) # 800080b4 <heap_top>
80002a98:	02f77063          	bgeu	a4,a5,80002ab8 <malloc+0x64>
80002a9c:	00072683          	lw	a3,0(a4)
80002aa0:	0016f613          	and	a2,a3,1
80002aa4:	40e685b3          	sub	a1,a3,a4
80002aa8:	00061463          	bnez	a2,80002ab0 <malloc+0x5c>
80002aac:	08b86863          	bltu	a6,a1,80002b3c <malloc+0xe8>
80002ab0:	ffe6f713          	and	a4,a3,-2
80002ab4:	fef764e3          	bltu	a4,a5,80002a9c <malloc+0x48>
80002ab8:	00000513          	li	a0,0
80002abc:	00008067          	ret
80002ac0:	ffe7f593          	and	a1,a5,-2
80002ac4:	00387613          	and	a2,a6,3
80002ac8:	00458513          	add	a0,a1,4
80002acc:	06061263          	bnez	a2,80002b30 <malloc+0xdc>
80002ad0:	00480693          	add	a3,a6,4
80002ad4:	00c686b3          	add	a3,a3,a2
80002ad8:	ffc6f693          	and	a3,a3,-4
80002adc:	00d786b3          	add	a3,a5,a3
80002ae0:	10d8ac23          	sw	a3,280(a7)
80002ae4:	00e68463          	beq	a3,a4,80002aec <malloc+0x98>
80002ae8:	00e6a023          	sw	a4,0(a3)
80002aec:	0016e693          	or	a3,a3,1
80002af0:	00d7a023          	sw	a3,0(a5)
80002af4:	ffc00793          	li	a5,-4
80002af8:	f8f58ae3          	beq	a1,a5,80002a8c <malloc+0x38>
80002afc:	00008067          	ret
80002b00:	800087b7          	lui	a5,0x80008
80002b04:	800086b7          	lui	a3,0x80008
80002b08:	0b47a783          	lw	a5,180(a5) # 800080b4 <heap_top>
80002b0c:	0b06a583          	lw	a1,176(a3) # 800080b0 <heap_size>
80002b10:	10f8ac23          	sw	a5,280(a7)
80002b14:	00b785b3          	add	a1,a5,a1
80002b18:	ff05f593          	and	a1,a1,-16
80002b1c:	10b72a23          	sw	a1,276(a4)
80002b20:	00b7a023          	sw	a1,0(a5)
80002b24:	f4b7e6e3          	bltu	a5,a1,80002a70 <malloc+0x1c>
80002b28:	00000513          	li	a0,0
80002b2c:	f91ff06f          	j	80002abc <malloc+0x68>
80002b30:	00400693          	li	a3,4
80002b34:	40c68633          	sub	a2,a3,a2
80002b38:	f99ff06f          	j	80002ad0 <malloc+0x7c>
80002b3c:	ffe77513          	and	a0,a4,-2
80002b40:	00387613          	and	a2,a6,3
80002b44:	00450513          	add	a0,a0,4
80002b48:	00060663          	beqz	a2,80002b54 <malloc+0x100>
80002b4c:	00400793          	li	a5,4
80002b50:	40c78633          	sub	a2,a5,a2
80002b54:	00480793          	add	a5,a6,4
80002b58:	00c787b3          	add	a5,a5,a2
80002b5c:	ffc7f793          	and	a5,a5,-4
80002b60:	00f707b3          	add	a5,a4,a5
80002b64:	10f8ac23          	sw	a5,280(a7)
80002b68:	00d78463          	beq	a5,a3,80002b70 <malloc+0x11c>
80002b6c:	00d7a023          	sw	a3,0(a5)
80002b70:	0017e793          	or	a5,a5,1
80002b74:	00f72023          	sw	a5,0(a4)
80002b78:	00008067          	ret

80002b7c <free>:
80002b7c:	ffc52783          	lw	a5,-4(a0)
80002b80:	ffe7f793          	and	a5,a5,-2
80002b84:	fef52e23          	sw	a5,-4(a0)
80002b88:	0007a783          	lw	a5,0(a5)
80002b8c:	0017f713          	and	a4,a5,1
80002b90:	00071a63          	bnez	a4,80002ba4 <free+0x28>
80002b94:	ffc50713          	add	a4,a0,-4
80002b98:	fef52e23          	sw	a5,-4(a0)
80002b9c:	800127b7          	lui	a5,0x80012
80002ba0:	10e7ac23          	sw	a4,280(a5) # 80012118 <curr_top>
80002ba4:	00008067          	ret

80002ba8 <calloc>:
80002ba8:	ff010113          	add	sp,sp,-16
80002bac:	00912423          	sw	s1,8(sp)
80002bb0:	02b504b3          	mul	s1,a0,a1
80002bb4:	00112623          	sw	ra,12(sp)
80002bb8:	01212223          	sw	s2,4(sp)
80002bbc:	00048513          	mv	a0,s1
80002bc0:	e95ff0ef          	jal	80002a54 <malloc>
80002bc4:	00048613          	mv	a2,s1
80002bc8:	00000593          	li	a1,0
80002bcc:	00050913          	mv	s2,a0
80002bd0:	4c4000ef          	jal	80003094 <memset>
80002bd4:	00c12083          	lw	ra,12(sp)
80002bd8:	00812483          	lw	s1,8(sp)
80002bdc:	00090513          	mv	a0,s2
80002be0:	00412903          	lw	s2,4(sp)
80002be4:	01010113          	add	sp,sp,16
80002be8:	00008067          	ret

80002bec <atoi>:
80002bec:	00050793          	mv	a5,a0
80002bf0:	02000693          	li	a3,32
80002bf4:	00900613          	li	a2,9
80002bf8:	0007c703          	lbu	a4,0(a5)
80002bfc:	00d70463          	beq	a4,a3,80002c04 <atoi+0x18>
80002c00:	00c71663          	bne	a4,a2,80002c0c <atoi+0x20>
80002c04:	00178793          	add	a5,a5,1
80002c08:	ff1ff06f          	j	80002bf8 <atoi+0xc>
80002c0c:	02d00693          	li	a3,45
80002c10:	00100813          	li	a6,1
80002c14:	00d71863          	bne	a4,a3,80002c24 <atoi+0x38>
80002c18:	0017c703          	lbu	a4,1(a5)
80002c1c:	fff00813          	li	a6,-1
80002c20:	00178793          	add	a5,a5,1
80002c24:	fd070713          	add	a4,a4,-48
80002c28:	0ff77613          	zext.b	a2,a4
80002c2c:	00900693          	li	a3,9
80002c30:	00000513          	li	a0,0
80002c34:	04c6e263          	bltu	a3,a2,80002c78 <atoi+0x8c>
80002c38:	0017c603          	lbu	a2,1(a5)
80002c3c:	00178793          	add	a5,a5,1
80002c40:	02060e63          	beqz	a2,80002c7c <atoi+0x90>
80002c44:	00900513          	li	a0,9
80002c48:	0100006f          	j	80002c58 <atoi+0x6c>
80002c4c:	0007c603          	lbu	a2,0(a5)
80002c50:	00e58733          	add	a4,a1,a4
80002c54:	02060463          	beqz	a2,80002c7c <atoi+0x90>
80002c58:	00271693          	sll	a3,a4,0x2
80002c5c:	fd060593          	add	a1,a2,-48
80002c60:	00e68733          	add	a4,a3,a4
80002c64:	0ff5f693          	zext.b	a3,a1
80002c68:	00178793          	add	a5,a5,1
80002c6c:	00171713          	sll	a4,a4,0x1
80002c70:	fcd57ee3          	bgeu	a0,a3,80002c4c <atoi+0x60>
80002c74:	00000513          	li	a0,0
80002c78:	00008067          	ret
80002c7c:	02e80533          	mul	a0,a6,a4
80002c80:	00008067          	ret

80002c84 <abs>:
80002c84:	41f55793          	sra	a5,a0,0x1f
80002c88:	00a7c533          	xor	a0,a5,a0
80002c8c:	40f50533          	sub	a0,a0,a5
80002c90:	00008067          	ret

80002c94 <srand>:
80002c94:	800127b7          	lui	a5,0x80012
80002c98:	10a7a823          	sw	a0,272(a5) # 80012110 <rand_seed>
80002c9c:	00008067          	ret

80002ca0 <rand>:
80002ca0:	800126b7          	lui	a3,0x80012
80002ca4:	1106a783          	lw	a5,272(a3) # 80012110 <rand_seed>
80002ca8:	00034737          	lui	a4,0x34
80002cac:	3fd70713          	add	a4,a4,1021 # 343fd <__stack_size+0x33bfd>
80002cb0:	02e787b3          	mul	a5,a5,a4
80002cb4:	0026a737          	lui	a4,0x26a
80002cb8:	ec370713          	add	a4,a4,-317 # 269ec3 <__heap_size+0x69ec3>
80002cbc:	00e787b3          	add	a5,a5,a4
80002cc0:	00179513          	sll	a0,a5,0x1
80002cc4:	10f6a823          	sw	a5,272(a3)
80002cc8:	01155513          	srl	a0,a0,0x11
80002ccc:	00008067          	ret

80002cd0 <strcpy>:
80002cd0:	00b567b3          	or	a5,a0,a1
80002cd4:	0037f793          	and	a5,a5,3
80002cd8:	06079663          	bnez	a5,80002d44 <strcpy+0x74>
80002cdc:	0005a683          	lw	a3,0(a1)
80002ce0:	feff0837          	lui	a6,0xfeff0
80002ce4:	eff80813          	add	a6,a6,-257 # fefefeff <__freertos_irq_stack_top+0x7eddd5cf>
80002ce8:	010687b3          	add	a5,a3,a6
80002cec:	fff6c713          	not	a4,a3
80002cf0:	808088b7          	lui	a7,0x80808
80002cf4:	00e7f7b3          	and	a5,a5,a4
80002cf8:	08088893          	add	a7,a7,128 # 80808080 <__freertos_irq_stack_top+0x5f5750>
80002cfc:	0117f7b3          	and	a5,a5,a7
80002d00:	04079263          	bnez	a5,80002d44 <strcpy+0x74>
80002d04:	00050793          	mv	a5,a0
80002d08:	00d7a023          	sw	a3,0(a5)
80002d0c:	0045a683          	lw	a3,4(a1)
80002d10:	00458593          	add	a1,a1,4
80002d14:	00478793          	add	a5,a5,4
80002d18:	01068733          	add	a4,a3,a6
80002d1c:	fff6c613          	not	a2,a3
80002d20:	00c77733          	and	a4,a4,a2
80002d24:	01177733          	and	a4,a4,a7
80002d28:	fe0700e3          	beqz	a4,80002d08 <strcpy+0x38>
80002d2c:	0005c703          	lbu	a4,0(a1)
80002d30:	00178793          	add	a5,a5,1
80002d34:	00158593          	add	a1,a1,1
80002d38:	fee78fa3          	sb	a4,-1(a5)
80002d3c:	00071663          	bnez	a4,80002d48 <strcpy+0x78>
80002d40:	00008067          	ret
80002d44:	00050793          	mv	a5,a0
80002d48:	0005c703          	lbu	a4,0(a1)
80002d4c:	00178793          	add	a5,a5,1
80002d50:	00158593          	add	a1,a1,1
80002d54:	fee78fa3          	sb	a4,-1(a5)
80002d58:	fe0718e3          	bnez	a4,80002d48 <strcpy+0x78>
80002d5c:	00008067          	ret

80002d60 <strcmp>:
80002d60:	00b567b3          	or	a5,a0,a1
80002d64:	0037f793          	and	a5,a5,3
80002d68:	04079a63          	bnez	a5,80002dbc <strcmp+0x5c>
80002d6c:	00052783          	lw	a5,0(a0)
80002d70:	0005a703          	lw	a4,0(a1)
80002d74:	04e79463          	bne	a5,a4,80002dbc <strcmp+0x5c>
80002d78:	feff0637          	lui	a2,0xfeff0
80002d7c:	808086b7          	lui	a3,0x80808
80002d80:	eff60613          	add	a2,a2,-257 # fefefeff <__freertos_irq_stack_top+0x7eddd5cf>
80002d84:	08068693          	add	a3,a3,128 # 80808080 <__freertos_irq_stack_top+0x5f5750>
80002d88:	0100006f          	j	80002d98 <strcmp+0x38>
80002d8c:	00052783          	lw	a5,0(a0)
80002d90:	0005a703          	lw	a4,0(a1)
80002d94:	02e79463          	bne	a5,a4,80002dbc <strcmp+0x5c>
80002d98:	00c78733          	add	a4,a5,a2
80002d9c:	fff7c793          	not	a5,a5
80002da0:	00f777b3          	and	a5,a4,a5
80002da4:	00d7f7b3          	and	a5,a5,a3
80002da8:	00450513          	add	a0,a0,4
80002dac:	00458593          	add	a1,a1,4
80002db0:	fc078ee3          	beqz	a5,80002d8c <strcmp+0x2c>
80002db4:	00000513          	li	a0,0
80002db8:	00008067          	ret
80002dbc:	00054783          	lbu	a5,0(a0)
80002dc0:	00079a63          	bnez	a5,80002dd4 <strcmp+0x74>
80002dc4:	0340006f          	j	80002df8 <strcmp+0x98>
80002dc8:	00054783          	lbu	a5,0(a0)
80002dcc:	02078063          	beqz	a5,80002dec <strcmp+0x8c>
80002dd0:	00068593          	mv	a1,a3
80002dd4:	0005c703          	lbu	a4,0(a1)
80002dd8:	00150513          	add	a0,a0,1
80002ddc:	00158693          	add	a3,a1,1
80002de0:	fef704e3          	beq	a4,a5,80002dc8 <strcmp+0x68>
80002de4:	40e78533          	sub	a0,a5,a4
80002de8:	00008067          	ret
80002dec:	0015c703          	lbu	a4,1(a1)
80002df0:	40e78533          	sub	a0,a5,a4
80002df4:	00008067          	ret
80002df8:	0005c703          	lbu	a4,0(a1)
80002dfc:	fe9ff06f          	j	80002de4 <strcmp+0x84>

80002e00 <strncpy>:
80002e00:	00b567b3          	or	a5,a0,a1
80002e04:	0037f793          	and	a5,a5,3
80002e08:	00050713          	mv	a4,a0
80002e0c:	06079463          	bnez	a5,80002e74 <strncpy+0x74>
80002e10:	0005a683          	lw	a3,0(a1)
80002e14:	feff08b7          	lui	a7,0xfeff0
80002e18:	eff88893          	add	a7,a7,-257 # fefefeff <__freertos_irq_stack_top+0x7eddd5cf>
80002e1c:	011687b3          	add	a5,a3,a7
80002e20:	fff6c813          	not	a6,a3
80002e24:	80808337          	lui	t1,0x80808
80002e28:	0107f7b3          	and	a5,a5,a6
80002e2c:	08030313          	add	t1,t1,128 # 80808080 <__freertos_irq_stack_top+0x5f5750>
80002e30:	0067f7b3          	and	a5,a5,t1
80002e34:	04079063          	bnez	a5,80002e74 <strncpy+0x74>
80002e38:	00400793          	li	a5,4
80002e3c:	02c7fc63          	bgeu	a5,a2,80002e74 <strncpy+0x74>
80002e40:	00400e13          	li	t3,4
80002e44:	0080006f          	j	80002e4c <strncpy+0x4c>
80002e48:	02ce7663          	bgeu	t3,a2,80002e74 <strncpy+0x74>
80002e4c:	00d72023          	sw	a3,0(a4)
80002e50:	0045a683          	lw	a3,4(a1)
80002e54:	00470713          	add	a4,a4,4
80002e58:	00458593          	add	a1,a1,4
80002e5c:	011687b3          	add	a5,a3,a7
80002e60:	fff6c813          	not	a6,a3
80002e64:	0107f7b3          	and	a5,a5,a6
80002e68:	0067f7b3          	and	a5,a5,t1
80002e6c:	ffc60613          	add	a2,a2,-4
80002e70:	fc078ce3          	beqz	a5,80002e48 <strncpy+0x48>
80002e74:	00160813          	add	a6,a2,1
80002e78:	00058793          	mv	a5,a1
80002e7c:	00b80833          	add	a6,a6,a1
80002e80:	0080006f          	j	80002e88 <strncpy+0x88>
80002e84:	03078663          	beq	a5,a6,80002eb0 <strncpy+0xb0>
80002e88:	0007c683          	lbu	a3,0(a5)
80002e8c:	00078893          	mv	a7,a5
80002e90:	00170713          	add	a4,a4,1
80002e94:	fed70fa3          	sb	a3,-1(a4)
80002e98:	00178793          	add	a5,a5,1
80002e9c:	fe0694e3          	bnez	a3,80002e84 <strncpy+0x84>
80002ea0:	00b60633          	add	a2,a2,a1
80002ea4:	00160613          	add	a2,a2,1
80002ea8:	01160463          	beq	a2,a7,80002eb0 <strncpy+0xb0>
80002eac:	00008067          	ret
80002eb0:	00070023          	sb	zero,0(a4)
80002eb4:	00008067          	ret

80002eb8 <strncmp>:
80002eb8:	00b567b3          	or	a5,a0,a1
80002ebc:	0037f793          	and	a5,a5,3
80002ec0:	06079463          	bnez	a5,80002f28 <strncmp+0x70>
80002ec4:	00052783          	lw	a5,0(a0)
80002ec8:	0005a703          	lw	a4,0(a1)
80002ecc:	04e79e63          	bne	a5,a4,80002f28 <strncmp+0x70>
80002ed0:	00400713          	li	a4,4
80002ed4:	04c77a63          	bgeu	a4,a2,80002f28 <strncmp+0x70>
80002ed8:	feff0837          	lui	a6,0xfeff0
80002edc:	808086b7          	lui	a3,0x80808
80002ee0:	eff80813          	add	a6,a6,-257 # fefefeff <__freertos_irq_stack_top+0x7eddd5cf>
80002ee4:	08068693          	add	a3,a3,128 # 80808080 <__freertos_irq_stack_top+0x5f5750>
80002ee8:	00400893          	li	a7,4
80002eec:	0180006f          	j	80002f04 <strncmp+0x4c>
80002ef0:	00052783          	lw	a5,0(a0)
80002ef4:	0005a703          	lw	a4,0(a1)
80002ef8:	ffc60613          	add	a2,a2,-4
80002efc:	02e79663          	bne	a5,a4,80002f28 <strncmp+0x70>
80002f00:	02c8f463          	bgeu	a7,a2,80002f28 <strncmp+0x70>
80002f04:	01078733          	add	a4,a5,a6
80002f08:	fff7c793          	not	a5,a5
80002f0c:	00f777b3          	and	a5,a4,a5
80002f10:	00d7f7b3          	and	a5,a5,a3
80002f14:	00450513          	add	a0,a0,4
80002f18:	00458593          	add	a1,a1,4
80002f1c:	fc078ae3          	beqz	a5,80002ef0 <strncmp+0x38>
80002f20:	00000513          	li	a0,0
80002f24:	00008067          	ret
80002f28:	fff60613          	add	a2,a2,-1
80002f2c:	00050793          	mv	a5,a0
80002f30:	00c50833          	add	a6,a0,a2
80002f34:	00061e63          	bnez	a2,80002f50 <strncmp+0x98>
80002f38:	0400006f          	j	80002f78 <strncmp+0xc0>
80002f3c:	00158613          	add	a2,a1,1
80002f40:	02d51063          	bne	a0,a3,80002f60 <strncmp+0xa8>
80002f44:	03070263          	beq	a4,a6,80002f68 <strncmp+0xb0>
80002f48:	00060593          	mv	a1,a2
80002f4c:	00070793          	mv	a5,a4
80002f50:	0007c503          	lbu	a0,0(a5)
80002f54:	0005c683          	lbu	a3,0(a1)
80002f58:	00178713          	add	a4,a5,1
80002f5c:	fe0510e3          	bnez	a0,80002f3c <strncmp+0x84>
80002f60:	40d50533          	sub	a0,a0,a3
80002f64:	00008067          	ret
80002f68:	0017c503          	lbu	a0,1(a5)
80002f6c:	0015c683          	lbu	a3,1(a1)
80002f70:	40d50533          	sub	a0,a0,a3
80002f74:	00008067          	ret
80002f78:	00054503          	lbu	a0,0(a0)
80002f7c:	0005c683          	lbu	a3,0(a1)
80002f80:	fe1ff06f          	j	80002f60 <strncmp+0xa8>

80002f84 <memcpy>:
80002f84:	00b567b3          	or	a5,a0,a1
80002f88:	0037f793          	and	a5,a5,3
80002f8c:	08079463          	bnez	a5,80003014 <memcpy+0x90>
80002f90:	0005a683          	lw	a3,0(a1)
80002f94:	feff08b7          	lui	a7,0xfeff0
80002f98:	eff88893          	add	a7,a7,-257 # fefefeff <__freertos_irq_stack_top+0x7eddd5cf>
80002f9c:	011687b3          	add	a5,a3,a7
80002fa0:	fff6c713          	not	a4,a3
80002fa4:	80808337          	lui	t1,0x80808
80002fa8:	00e7f7b3          	and	a5,a5,a4
80002fac:	08030313          	add	t1,t1,128 # 80808080 <__freertos_irq_stack_top+0x5f5750>
80002fb0:	0067f7b3          	and	a5,a5,t1
80002fb4:	06079063          	bnez	a5,80003014 <memcpy+0x90>
80002fb8:	00400793          	li	a5,4
80002fbc:	04c7fc63          	bgeu	a5,a2,80003014 <memcpy+0x90>
80002fc0:	00050793          	mv	a5,a0
80002fc4:	00400e13          	li	t3,4
80002fc8:	0080006f          	j	80002fd0 <memcpy+0x4c>
80002fcc:	02ce7663          	bgeu	t3,a2,80002ff8 <memcpy+0x74>
80002fd0:	00d7a023          	sw	a3,0(a5)
80002fd4:	0045a683          	lw	a3,4(a1)
80002fd8:	00478793          	add	a5,a5,4
80002fdc:	00458593          	add	a1,a1,4
80002fe0:	01168733          	add	a4,a3,a7
80002fe4:	fff6c813          	not	a6,a3
80002fe8:	01077733          	and	a4,a4,a6
80002fec:	00677733          	and	a4,a4,t1
80002ff0:	ffc60613          	add	a2,a2,-4
80002ff4:	fc070ce3          	beqz	a4,80002fcc <memcpy+0x48>
80002ff8:	00c78633          	add	a2,a5,a2
80002ffc:	0005c703          	lbu	a4,0(a1)
80003000:	00178793          	add	a5,a5,1
80003004:	00158593          	add	a1,a1,1
80003008:	fee78fa3          	sb	a4,-1(a5)
8000300c:	fec798e3          	bne	a5,a2,80002ffc <memcpy+0x78>
80003010:	00008067          	ret
80003014:	00050793          	mv	a5,a0
80003018:	fe0610e3          	bnez	a2,80002ff8 <memcpy+0x74>
8000301c:	00008067          	ret

80003020 <memmove>:
80003020:	ff010113          	add	sp,sp,-16
80003024:	00812423          	sw	s0,8(sp)
80003028:	00112623          	sw	ra,12(sp)
8000302c:	00050413          	mv	s0,a0
80003030:	04b56463          	bltu	a0,a1,80003078 <memmove+0x58>
80003034:	00c587b3          	add	a5,a1,a2
80003038:	04a7e063          	bltu	a5,a0,80003078 <memmove+0x58>
8000303c:	04060263          	beqz	a2,80003080 <memmove+0x60>
80003040:	fff60613          	add	a2,a2,-1
80003044:	00c507b3          	add	a5,a0,a2
80003048:	00c585b3          	add	a1,a1,a2
8000304c:	fff50693          	add	a3,a0,-1
80003050:	0005c703          	lbu	a4,0(a1)
80003054:	fff78793          	add	a5,a5,-1
80003058:	fff58593          	add	a1,a1,-1
8000305c:	00e780a3          	sb	a4,1(a5)
80003060:	fed798e3          	bne	a5,a3,80003050 <memmove+0x30>
80003064:	00c12083          	lw	ra,12(sp)
80003068:	00040513          	mv	a0,s0
8000306c:	00812403          	lw	s0,8(sp)
80003070:	01010113          	add	sp,sp,16
80003074:	00008067          	ret
80003078:	00040513          	mv	a0,s0
8000307c:	f09ff0ef          	jal	80002f84 <memcpy>
80003080:	00c12083          	lw	ra,12(sp)
80003084:	00040513          	mv	a0,s0
80003088:	00812403          	lw	s0,8(sp)
8000308c:	01010113          	add	sp,sp,16
80003090:	00008067          	ret

80003094 <memset>:
80003094:	0ff5f593          	zext.b	a1,a1
80003098:	00c50733          	add	a4,a0,a2
8000309c:	00050793          	mv	a5,a0
800030a0:	00060863          	beqz	a2,800030b0 <memset+0x1c>
800030a4:	00178793          	add	a5,a5,1
800030a8:	feb78fa3          	sb	a1,-1(a5)
800030ac:	fee79ce3          	bne	a5,a4,800030a4 <memset+0x10>
800030b0:	00008067          	ret

800030b4 <strlen>:
800030b4:	00054783          	lbu	a5,0(a0)
800030b8:	00050713          	mv	a4,a0
800030bc:	00000513          	li	a0,0
800030c0:	00078c63          	beqz	a5,800030d8 <strlen+0x24>
800030c4:	00150513          	add	a0,a0,1
800030c8:	00a707b3          	add	a5,a4,a0
800030cc:	0007c783          	lbu	a5,0(a5)
800030d0:	fe079ae3          	bnez	a5,800030c4 <strlen+0x10>
800030d4:	00008067          	ret
800030d8:	00008067          	ret

800030dc <strcat>:
800030dc:	00054783          	lbu	a5,0(a0)
800030e0:	02078c63          	beqz	a5,80003118 <strcat+0x3c>
800030e4:	00050793          	mv	a5,a0
800030e8:	0017c703          	lbu	a4,1(a5)
800030ec:	00178793          	add	a5,a5,1
800030f0:	fe071ce3          	bnez	a4,800030e8 <strcat+0xc>
800030f4:	0005c703          	lbu	a4,0(a1)
800030f8:	00070c63          	beqz	a4,80003110 <strcat+0x34>
800030fc:	00e78023          	sb	a4,0(a5)
80003100:	0015c703          	lbu	a4,1(a1)
80003104:	00158593          	add	a1,a1,1
80003108:	00178793          	add	a5,a5,1
8000310c:	fe0718e3          	bnez	a4,800030fc <strcat+0x20>
80003110:	00078023          	sb	zero,0(a5)
80003114:	00008067          	ret
80003118:	00050793          	mv	a5,a0
8000311c:	fd9ff06f          	j	800030f4 <strcat+0x18>

80003120 <strncat>:
80003120:	00054783          	lbu	a5,0(a0)
80003124:	04078463          	beqz	a5,8000316c <strncat+0x4c>
80003128:	00050793          	mv	a5,a0
8000312c:	0017c703          	lbu	a4,1(a5)
80003130:	00178793          	add	a5,a5,1
80003134:	fe071ce3          	bnez	a4,8000312c <strncat+0xc>
80003138:	0005c703          	lbu	a4,0(a1)
8000313c:	02070463          	beqz	a4,80003164 <strncat+0x44>
80003140:	02060263          	beqz	a2,80003164 <strncat+0x44>
80003144:	00c58633          	add	a2,a1,a2
80003148:	0080006f          	j	80003150 <strncat+0x30>
8000314c:	00b60c63          	beq	a2,a1,80003164 <strncat+0x44>
80003150:	00e78023          	sb	a4,0(a5)
80003154:	0015c703          	lbu	a4,1(a1)
80003158:	00158593          	add	a1,a1,1
8000315c:	00178793          	add	a5,a5,1
80003160:	fe0716e3          	bnez	a4,8000314c <strncat+0x2c>
80003164:	00078023          	sb	zero,0(a5)
80003168:	00008067          	ret
8000316c:	00050793          	mv	a5,a0
80003170:	fc9ff06f          	j	80003138 <strncat+0x18>

80003174 <clock>:
80003174:	ff010113          	add	sp,sp,-16
80003178:	00112623          	sw	ra,12(sp)
8000317c:	b0002573          	csrr	a0,mcycle
80003180:	b8002773          	csrr	a4,mcycleh
80003184:	000f47b7          	lui	a5,0xf4
80003188:	24078793          	add	a5,a5,576 # f4240 <__stack_size+0xf3a40>
8000318c:	02f535b3          	mulhu	a1,a0,a5
80003190:	027bd637          	lui	a2,0x27bd
80003194:	86b60613          	add	a2,a2,-1941 # 27bc86b <__heap_size+0x25bc86b>
80003198:	00000693          	li	a3,0
8000319c:	02f70733          	mul	a4,a4,a5
800031a0:	02f50533          	mul	a0,a0,a5
800031a4:	00b705b3          	add	a1,a4,a1
800031a8:	038010ef          	jal	800041e0 <__divdi3>
800031ac:	00c12083          	lw	ra,12(sp)
800031b0:	01010113          	add	sp,sp,16
800031b4:	00008067          	ret

800031b8 <inbyte>:
800031b8:	c0000737          	lui	a4,0xc0000
800031bc:	00872783          	lw	a5,8(a4) # c0000008 <__freertos_irq_stack_top+0x3fded6d8>
800031c0:	0017f793          	and	a5,a5,1
800031c4:	fe078ce3          	beqz	a5,800031bc <inbyte+0x4>
800031c8:	00072503          	lw	a0,0(a4)
800031cc:	0ff57513          	zext.b	a0,a0
800031d0:	00008067          	ret

800031d4 <outbyte>:
800031d4:	00a00793          	li	a5,10
800031d8:	00f50e63          	beq	a0,a5,800031f4 <outbyte+0x20>
800031dc:	c0000737          	lui	a4,0xc0000
800031e0:	00872783          	lw	a5,8(a4) # c0000008 <__freertos_irq_stack_top+0x3fded6d8>
800031e4:	0087f793          	and	a5,a5,8
800031e8:	fe079ce3          	bnez	a5,800031e0 <outbyte+0xc>
800031ec:	00a72223          	sw	a0,4(a4)
800031f0:	00008067          	ret
800031f4:	c0000737          	lui	a4,0xc0000
800031f8:	00872783          	lw	a5,8(a4) # c0000008 <__freertos_irq_stack_top+0x3fded6d8>
800031fc:	0087f793          	and	a5,a5,8
80003200:	fe079ce3          	bnez	a5,800031f8 <outbyte+0x24>
80003204:	00d00793          	li	a5,13
80003208:	00f72223          	sw	a5,4(a4)
8000320c:	fd1ff06f          	j	800031dc <outbyte+0x8>

80003210 <copy_file>:
80003210:	fb010113          	add	sp,sp,-80
80003214:	03712623          	sw	s7,44(sp)
80003218:	03912223          	sw	s9,36(sp)
8000321c:	04112623          	sw	ra,76(sp)
80003220:	04812423          	sw	s0,72(sp)
80003224:	04912223          	sw	s1,68(sp)
80003228:	05212023          	sw	s2,64(sp)
8000322c:	03312e23          	sw	s3,60(sp)
80003230:	03412c23          	sw	s4,56(sp)
80003234:	03512a23          	sw	s5,52(sp)
80003238:	03612823          	sw	s6,48(sp)
8000323c:	03812423          	sw	s8,40(sp)
80003240:	03a12023          	sw	s10,32(sp)
80003244:	01b12e23          	sw	s11,28(sp)
80003248:	0255c703          	lbu	a4,37(a1)
8000324c:	0245c803          	lbu	a6,36(a1)
80003250:	0265c783          	lbu	a5,38(a1)
80003254:	0275c903          	lbu	s2,39(a1)
80003258:	00871713          	sll	a4,a4,0x8
8000325c:	00058c93          	mv	s9,a1
80003260:	01076733          	or	a4,a4,a6
80003264:	0105c583          	lbu	a1,16(a1)
80003268:	01079793          	sll	a5,a5,0x10
8000326c:	00e7e7b3          	or	a5,a5,a4
80003270:	01891913          	sll	s2,s2,0x18
80003274:	00f96933          	or	s2,s2,a5
80003278:	02b90933          	mul	s2,s2,a1
8000327c:	00fcca03          	lbu	s4,15(s9)
80003280:	00ecc783          	lbu	a5,14(s9)
80003284:	00ccc583          	lbu	a1,12(s9)
80003288:	008a1a13          	sll	s4,s4,0x8
8000328c:	00fa6a33          	or	s4,s4,a5
80003290:	0015d593          	srl	a1,a1,0x1
80003294:	00d12623          	sw	a3,12(sp)
80003298:	0156c703          	lbu	a4,21(a3)
8000329c:	0146c803          	lbu	a6,20(a3)
800032a0:	01490933          	add	s2,s2,s4
800032a4:	02b90933          	mul	s2,s2,a1
800032a8:	01b6c783          	lbu	a5,27(a3)
800032ac:	01a6c683          	lbu	a3,26(a3)
800032b0:	00871713          	sll	a4,a4,0x8
800032b4:	00dcc983          	lbu	s3,13(s9)
800032b8:	01076733          	or	a4,a4,a6
800032bc:	00879793          	sll	a5,a5,0x8
800032c0:	01071713          	sll	a4,a4,0x10
800032c4:	00d7e7b3          	or	a5,a5,a3
800032c8:	10000bb7          	lui	s7,0x10000
800032cc:	02ba0a33          	mul	s4,s4,a1
800032d0:	00e787b3          	add	a5,a5,a4
800032d4:	ff7b8b93          	add	s7,s7,-9 # ffffff7 <__heap_size+0xfdffff7>
800032d8:	00c90933          	add	s2,s2,a2
800032dc:	02b989b3          	mul	s3,s3,a1
800032e0:	00ca0a33          	add	s4,s4,a2
800032e4:	0afbec63          	bltu	s7,a5,8000339c <copy_file+0x18c>
800032e8:	00050493          	mv	s1,a0
800032ec:	fff00a93          	li	s5,-1
800032f0:	fff00c13          	li	s8,-1
800032f4:	80011b37          	lui	s6,0x80011
800032f8:	0440006f          	j	8000333c <copy_file+0x12c>
800032fc:	00ccc783          	lbu	a5,12(s9)
80003300:	00bcc803          	lbu	a6,11(s9)
80003304:	00dcc703          	lbu	a4,13(s9)
80003308:	00879793          	sll	a5,a5,0x8
8000330c:	0107e7b3          	or	a5,a5,a6
80003310:	02f707b3          	mul	a5,a4,a5
80003314:	00f484b3          	add	s1,s1,a5
80003318:	018a8463          	beq	s5,s8,80003320 <copy_file+0x110>
8000331c:	01ba8463          	beq	s5,s11,80003324 <copy_file+0x114>
80003320:	1a5000ef          	jal	80003cc4 <sd_copy>
80003324:	200b0713          	add	a4,s6,512 # 80011200 <fat>
80003328:	00241793          	sll	a5,s0,0x2
8000332c:	00f707b3          	add	a5,a4,a5
80003330:	0007a783          	lw	a5,0(a5)
80003334:	000d8a93          	mv	s5,s11
80003338:	06fbe263          	bltu	s7,a5,8000339c <copy_file+0x18c>
8000333c:	ffe78593          	add	a1,a5,-2
80003340:	033585b3          	mul	a1,a1,s3
80003344:	00098613          	mv	a2,s3
80003348:	00048513          	mv	a0,s1
8000334c:	0097dd93          	srl	s11,a5,0x9
80003350:	1ff7f413          	and	s0,a5,511
80003354:	012585b3          	add	a1,a1,s2
80003358:	16d000ef          	jal	80003cc4 <sd_copy>
8000335c:	00bd9593          	sll	a1,s11,0xb
80003360:	0095d593          	srl	a1,a1,0x9
80003364:	00050d13          	mv	s10,a0
80003368:	00400613          	li	a2,4
8000336c:	014585b3          	add	a1,a1,s4
80003370:	200b0513          	add	a0,s6,512
80003374:	f80d04e3          	beqz	s10,800032fc <copy_file+0xec>
80003378:	80012537          	lui	a0,0x80012
8000337c:	e4850513          	add	a0,a0,-440 # 80011e48 <const_ff+0x448>
80003380:	c64ff0ef          	jal	800027e4 <printf>
80003384:	80012537          	lui	a0,0x80012
80003388:	000d0593          	mv	a1,s10
8000338c:	e6050513          	add	a0,a0,-416 # 80011e60 <const_ff+0x460>
80003390:	c54ff0ef          	jal	800027e4 <printf>
80003394:	00000513          	li	a0,0
80003398:	0300006f          	j	800033c8 <copy_file+0x1b8>
8000339c:	00c12603          	lw	a2,12(sp)
800033a0:	01d64703          	lbu	a4,29(a2)
800033a4:	01c64683          	lbu	a3,28(a2)
800033a8:	01e64783          	lbu	a5,30(a2)
800033ac:	01f64503          	lbu	a0,31(a2)
800033b0:	00871713          	sll	a4,a4,0x8
800033b4:	00d76733          	or	a4,a4,a3
800033b8:	01079793          	sll	a5,a5,0x10
800033bc:	00e7e7b3          	or	a5,a5,a4
800033c0:	01851513          	sll	a0,a0,0x18
800033c4:	00f56533          	or	a0,a0,a5
800033c8:	04c12083          	lw	ra,76(sp)
800033cc:	04812403          	lw	s0,72(sp)
800033d0:	04412483          	lw	s1,68(sp)
800033d4:	04012903          	lw	s2,64(sp)
800033d8:	03c12983          	lw	s3,60(sp)
800033dc:	03812a03          	lw	s4,56(sp)
800033e0:	03412a83          	lw	s5,52(sp)
800033e4:	03012b03          	lw	s6,48(sp)
800033e8:	02c12b83          	lw	s7,44(sp)
800033ec:	02812c03          	lw	s8,40(sp)
800033f0:	02412c83          	lw	s9,36(sp)
800033f4:	02012d03          	lw	s10,32(sp)
800033f8:	01c12d83          	lw	s11,28(sp)
800033fc:	05010113          	add	sp,sp,80
80003400:	00008067          	ret

80003404 <get_next_cluster>:
80003404:	0005a783          	lw	a5,0(a1)
80003408:	fe010113          	add	sp,sp,-32
8000340c:	00812c23          	sw	s0,24(sp)
80003410:	01212823          	sw	s2,16(sp)
80003414:	01312623          	sw	s3,12(sp)
80003418:	00112e23          	sw	ra,28(sp)
8000341c:	00912a23          	sw	s1,20(sp)
80003420:	fff00713          	li	a4,-1
80003424:	00058913          	mv	s2,a1
80003428:	00955993          	srl	s3,a0,0x9
8000342c:	00060593          	mv	a1,a2
80003430:	1ff57413          	and	s0,a0,511
80003434:	00e78663          	beq	a5,a4,80003440 <get_next_cluster+0x3c>
80003438:	800114b7          	lui	s1,0x80011
8000343c:	03378263          	beq	a5,s3,80003460 <get_next_cluster+0x5c>
80003440:	00b99793          	sll	a5,s3,0xb
80003444:	0097d793          	srl	a5,a5,0x9
80003448:	800114b7          	lui	s1,0x80011
8000344c:	00400613          	li	a2,4
80003450:	00b785b3          	add	a1,a5,a1
80003454:	20048513          	add	a0,s1,512 # 80011200 <fat>
80003458:	06d000ef          	jal	80003cc4 <sd_copy>
8000345c:	01392023          	sw	s3,0(s2)
80003460:	00241513          	sll	a0,s0,0x2
80003464:	01c12083          	lw	ra,28(sp)
80003468:	01812403          	lw	s0,24(sp)
8000346c:	20048493          	add	s1,s1,512
80003470:	00a484b3          	add	s1,s1,a0
80003474:	0004a503          	lw	a0,0(s1)
80003478:	01012903          	lw	s2,16(sp)
8000347c:	01412483          	lw	s1,20(sp)
80003480:	00c12983          	lw	s3,12(sp)
80003484:	02010113          	add	sp,sp,32
80003488:	00008067          	ret

8000348c <get_partition_first_lba>:
8000348c:	fe010113          	add	sp,sp,-32
80003490:	00812c23          	sw	s0,24(sp)
80003494:	00112e23          	sw	ra,28(sp)
80003498:	00912a23          	sw	s1,20(sp)
8000349c:	01212823          	sw	s2,16(sp)
800034a0:	01312623          	sw	s3,12(sp)
800034a4:	00050413          	mv	s0,a0
800034a8:	6d0000ef          	jal	80003b78 <init_sd>
800034ac:	0a051a63          	bnez	a0,80003560 <get_partition_first_lba+0xd4>
800034b0:	800114b7          	lui	s1,0x80011
800034b4:	00100613          	li	a2,1
800034b8:	00000593          	li	a1,0
800034bc:	00048513          	mv	a0,s1
800034c0:	005000ef          	jal	80003cc4 <sd_copy>
800034c4:	00048913          	mv	s2,s1
800034c8:	0e051663          	bnez	a0,800035b4 <get_partition_first_lba+0x128>
800034cc:	01b40793          	add	a5,s0,27
800034d0:	00479793          	sll	a5,a5,0x4
800034d4:	00f907b3          	add	a5,s2,a5
800034d8:	0127c683          	lbu	a3,18(a5)
800034dc:	0ee00713          	li	a4,238
800034e0:	02e68263          	beq	a3,a4,80003504 <get_partition_first_lba+0x78>
800034e4:	00300713          	li	a4,3
800034e8:	0e876063          	bltu	a4,s0,800035c8 <get_partition_first_lba+0x13c>
800034ec:	0187d503          	lhu	a0,24(a5)
800034f0:	0167d783          	lhu	a5,22(a5)
800034f4:	00000593          	li	a1,0
800034f8:	01051513          	sll	a0,a0,0x10
800034fc:	00f56533          	or	a0,a0,a5
80003500:	04051263          	bnez	a0,80003544 <get_partition_first_lba+0xb8>
80003504:	00100613          	li	a2,1
80003508:	00100593          	li	a1,1
8000350c:	00048513          	mv	a0,s1
80003510:	7b4000ef          	jal	80003cc4 <sd_copy>
80003514:	00050993          	mv	s3,a0
80003518:	06051e63          	bnez	a0,80003594 <get_partition_first_lba+0x108>
8000351c:	04892583          	lw	a1,72(s2)
80003520:	00048513          	mv	a0,s1
80003524:	00100613          	li	a2,1
80003528:	79c000ef          	jal	80003cc4 <sd_copy>
8000352c:	00050493          	mv	s1,a0
80003530:	0a051463          	bnez	a0,800035d8 <get_partition_first_lba+0x14c>
80003534:	00741413          	sll	s0,s0,0x7
80003538:	00890933          	add	s2,s2,s0
8000353c:	02092503          	lw	a0,32(s2)
80003540:	02492583          	lw	a1,36(s2)
80003544:	01c12083          	lw	ra,28(sp)
80003548:	01812403          	lw	s0,24(sp)
8000354c:	01412483          	lw	s1,20(sp)
80003550:	01012903          	lw	s2,16(sp)
80003554:	00c12983          	lw	s3,12(sp)
80003558:	02010113          	add	sp,sp,32
8000355c:	00008067          	ret
80003560:	00050593          	mv	a1,a0
80003564:	80012537          	lui	a0,0x80012
80003568:	e7c50513          	add	a0,a0,-388 # 80011e7c <const_ff+0x47c>
8000356c:	a78ff0ef          	jal	800027e4 <printf>
80003570:	01c12083          	lw	ra,28(sp)
80003574:	01812403          	lw	s0,24(sp)
80003578:	01412483          	lw	s1,20(sp)
8000357c:	01012903          	lw	s2,16(sp)
80003580:	00c12983          	lw	s3,12(sp)
80003584:	00000513          	li	a0,0
80003588:	00000593          	li	a1,0
8000358c:	02010113          	add	sp,sp,32
80003590:	00008067          	ret
80003594:	80012537          	lui	a0,0x80012
80003598:	efc50513          	add	a0,a0,-260 # 80011efc <const_ff+0x4fc>
8000359c:	a48ff0ef          	jal	800027e4 <printf>
800035a0:	80012537          	lui	a0,0x80012
800035a4:	00098593          	mv	a1,s3
800035a8:	e6050513          	add	a0,a0,-416 # 80011e60 <const_ff+0x460>
800035ac:	a38ff0ef          	jal	800027e4 <printf>
800035b0:	fc1ff06f          	j	80003570 <get_partition_first_lba+0xe4>
800035b4:	00050593          	mv	a1,a0
800035b8:	80012537          	lui	a0,0x80012
800035bc:	eac50513          	add	a0,a0,-340 # 80011eac <const_ff+0x4ac>
800035c0:	a24ff0ef          	jal	800027e4 <printf>
800035c4:	fadff06f          	j	80003570 <get_partition_first_lba+0xe4>
800035c8:	80012537          	lui	a0,0x80012
800035cc:	ed450513          	add	a0,a0,-300 # 80011ed4 <const_ff+0x4d4>
800035d0:	a14ff0ef          	jal	800027e4 <printf>
800035d4:	f9dff06f          	j	80003570 <get_partition_first_lba+0xe4>
800035d8:	80012537          	lui	a0,0x80012
800035dc:	efc50513          	add	a0,a0,-260 # 80011efc <const_ff+0x4fc>
800035e0:	a04ff0ef          	jal	800027e4 <printf>
800035e4:	80012537          	lui	a0,0x80012
800035e8:	00048593          	mv	a1,s1
800035ec:	e6050513          	add	a0,a0,-416 # 80011e60 <const_ff+0x460>
800035f0:	9f4ff0ef          	jal	800027e4 <printf>
800035f4:	f7dff06f          	j	80003570 <get_partition_first_lba+0xe4>

800035f8 <long2short>:
800035f8:	00058793          	mv	a5,a1
800035fc:	00b58693          	add	a3,a1,11
80003600:	02000713          	li	a4,32
80003604:	00e78023          	sb	a4,0(a5)
80003608:	00178793          	add	a5,a5,1
8000360c:	fed79ce3          	bne	a5,a3,80003604 <long2short+0xc>
80003610:	00054783          	lbu	a5,0(a0)
80003614:	02e00613          	li	a2,46
80003618:	00050713          	mv	a4,a0
8000361c:	02e00693          	li	a3,46
80003620:	00c78a63          	beq	a5,a2,80003634 <long2short+0x3c>
80003624:	00078c63          	beqz	a5,8000363c <long2short+0x44>
80003628:	00174783          	lbu	a5,1(a4)
8000362c:	00170713          	add	a4,a4,1
80003630:	fed79ae3          	bne	a5,a3,80003624 <long2short+0x2c>
80003634:	00170713          	add	a4,a4,1
80003638:	00100793          	li	a5,1
8000363c:	40a70eb3          	sub	t4,a4,a0
80003640:	40fe8eb3          	sub	t4,t4,a5
80003644:	00800793          	li	a5,8
80003648:	000e8313          	mv	t1,t4
8000364c:	01d7d463          	bge	a5,t4,80003654 <long2short+0x5c>
80003650:	00800313          	li	t1,8
80003654:	09d05a63          	blez	t4,800036e8 <long2short+0xf0>
80003658:	00000793          	li	a5,0
8000365c:	01900e13          	li	t3,25
80003660:	00f506b3          	add	a3,a0,a5
80003664:	0006c683          	lbu	a3,0(a3)
80003668:	00f58833          	add	a6,a1,a5
8000366c:	00178793          	add	a5,a5,1
80003670:	f9f68613          	add	a2,a3,-97
80003674:	0ff67613          	zext.b	a2,a2
80003678:	fe068893          	add	a7,a3,-32
8000367c:	00ce6463          	bltu	t3,a2,80003684 <long2short+0x8c>
80003680:	0ff8f693          	zext.b	a3,a7
80003684:	00d80023          	sb	a3,0(a6)
80003688:	fc67cce3          	blt	a5,t1,80003660 <long2short+0x68>
8000368c:	00074783          	lbu	a5,0(a4)
80003690:	02078e63          	beqz	a5,800036cc <long2short+0xd4>
80003694:	00858613          	add	a2,a1,8
80003698:	00370813          	add	a6,a4,3
8000369c:	01900513          	li	a0,25
800036a0:	00074783          	lbu	a5,0(a4)
800036a4:	00170713          	add	a4,a4,1
800036a8:	f9f78693          	add	a3,a5,-97
800036ac:	0ff6f693          	zext.b	a3,a3
800036b0:	fe078893          	add	a7,a5,-32
800036b4:	00078c63          	beqz	a5,800036cc <long2short+0xd4>
800036b8:	00d56463          	bltu	a0,a3,800036c0 <long2short+0xc8>
800036bc:	0ff8f793          	zext.b	a5,a7
800036c0:	00f60023          	sb	a5,0(a2)
800036c4:	00160613          	add	a2,a2,1
800036c8:	fce81ce3          	bne	a6,a4,800036a0 <long2short+0xa8>
800036cc:	00800793          	li	a5,8
800036d0:	01d7da63          	bge	a5,t4,800036e4 <long2short+0xec>
800036d4:	07e00793          	li	a5,126
800036d8:	00f58323          	sb	a5,6(a1)
800036dc:	03100793          	li	a5,49
800036e0:	00f583a3          	sb	a5,7(a1)
800036e4:	00008067          	ret
800036e8:	00074783          	lbu	a5,0(a4)
800036ec:	fa0794e3          	bnez	a5,80003694 <long2short+0x9c>
800036f0:	00008067          	ret

800036f4 <read_file>:
800036f4:	fa010113          	add	sp,sp,-96
800036f8:	00058793          	mv	a5,a1
800036fc:	01410593          	add	a1,sp,20
80003700:	04112e23          	sw	ra,92(sp)
80003704:	00f12623          	sw	a5,12(sp)
80003708:	04812c23          	sw	s0,88(sp)
8000370c:	04912a23          	sw	s1,84(sp)
80003710:	05212823          	sw	s2,80(sp)
80003714:	05312623          	sw	s3,76(sp)
80003718:	05412423          	sw	s4,72(sp)
8000371c:	05512223          	sw	s5,68(sp)
80003720:	05612023          	sw	s6,64(sp)
80003724:	03712e23          	sw	s7,60(sp)
80003728:	03812c23          	sw	s8,56(sp)
8000372c:	03912a23          	sw	s9,52(sp)
80003730:	03a12823          	sw	s10,48(sp)
80003734:	03b12623          	sw	s11,44(sp)
80003738:	ec1ff0ef          	jal	800035f8 <long2short>
8000373c:	00000513          	li	a0,0
80003740:	d4dff0ef          	jal	8000348c <get_partition_first_lba>
80003744:	00a12423          	sw	a0,8(sp)
80003748:	00051663          	bnez	a0,80003754 <read_file+0x60>
8000374c:	00012223          	sw	zero,4(sp)
80003750:	0f80006f          	j	80003848 <read_file+0x154>
80003754:	800117b7          	lui	a5,0x80011
80003758:	00078413          	mv	s0,a5
8000375c:	00050593          	mv	a1,a0
80003760:	00100613          	li	a2,1
80003764:	00078513          	mv	a0,a5
80003768:	55c000ef          	jal	80003cc4 <sd_copy>
8000376c:	00c44c83          	lbu	s9,12(s0)
80003770:	00b44803          	lbu	a6,11(s0)
80003774:	00d44a03          	lbu	s4,13(s0)
80003778:	008c9c93          	sll	s9,s9,0x8
8000377c:	010ce833          	or	a6,s9,a6
80003780:	01044a83          	lbu	s5,16(s0)
80003784:	02442783          	lw	a5,36(s0)
80003788:	03480bb3          	mul	s7,a6,s4
8000378c:	00e45c03          	lhu	s8,14(s0)
80003790:	009cdc93          	srl	s9,s9,0x9
80003794:	02fa8ab3          	mul	s5,s5,a5
80003798:	000b8513          	mv	a0,s7
8000379c:	ab8ff0ef          	jal	80002a54 <malloc>
800037a0:	00050993          	mv	s3,a0
800037a4:	039a0a33          	mul	s4,s4,s9
800037a8:	018a8ab3          	add	s5,s5,s8
800037ac:	14050463          	beqz	a0,800038f4 <read_file+0x200>
800037b0:	00812783          	lw	a5,8(sp)
800037b4:	405bdb93          	sra	s7,s7,0x5
800037b8:	fff00913          	li	s2,-1
800037bc:	00012223          	sw	zero,4(sp)
800037c0:	00200493          	li	s1,2
800037c4:	0e500d93          	li	s11,229
800037c8:	00f00413          	li	s0,15
800037cc:	039c0c33          	mul	s8,s8,s9
800037d0:	80011b37          	lui	s6,0x80011
800037d4:	035c8ab3          	mul	s5,s9,s5
800037d8:	00fc0733          	add	a4,s8,a5
800037dc:	10000cb7          	lui	s9,0x10000
800037e0:	00e12023          	sw	a4,0(sp)
800037e4:	ff7c8c93          	add	s9,s9,-9 # ffffff7 <__heap_size+0xfdffff7>
800037e8:	00fa8ab3          	add	s5,s5,a5
800037ec:	ffe48593          	add	a1,s1,-2 # 80010ffe <heap_top+0x8f4a>
800037f0:	034585b3          	mul	a1,a1,s4
800037f4:	000a0613          	mv	a2,s4
800037f8:	00098513          	mv	a0,s3
800037fc:	015585b3          	add	a1,a1,s5
80003800:	4c4000ef          	jal	80003cc4 <sd_copy>
80003804:	020b8e63          	beqz	s7,80003840 <read_file+0x14c>
80003808:	00098d13          	mv	s10,s3
8000380c:	00000c13          	li	s8,0
80003810:	000d4703          	lbu	a4,0(s10)
80003814:	03b70063          	beq	a4,s11,80003834 <read_file+0x140>
80003818:	00bd4703          	lbu	a4,11(s10)
8000381c:	000d0513          	mv	a0,s10
80003820:	00b00613          	li	a2,11
80003824:	01410593          	add	a1,sp,20
80003828:	00870663          	beq	a4,s0,80003834 <read_file+0x140>
8000382c:	e8cff0ef          	jal	80002eb8 <strncmp>
80003830:	04050c63          	beqz	a0,80003888 <read_file+0x194>
80003834:	001c0c13          	add	s8,s8,1
80003838:	020d0d13          	add	s10,s10,32
8000383c:	fd8b9ae3          	bne	s7,s8,80003810 <read_file+0x11c>
80003840:	00098513          	mv	a0,s3
80003844:	b38ff0ef          	jal	80002b7c <free>
80003848:	05c12083          	lw	ra,92(sp)
8000384c:	05812403          	lw	s0,88(sp)
80003850:	00412503          	lw	a0,4(sp)
80003854:	05412483          	lw	s1,84(sp)
80003858:	05012903          	lw	s2,80(sp)
8000385c:	04c12983          	lw	s3,76(sp)
80003860:	04812a03          	lw	s4,72(sp)
80003864:	04412a83          	lw	s5,68(sp)
80003868:	04012b03          	lw	s6,64(sp)
8000386c:	03c12b83          	lw	s7,60(sp)
80003870:	03812c03          	lw	s8,56(sp)
80003874:	03412c83          	lw	s9,52(sp)
80003878:	03012d03          	lw	s10,48(sp)
8000387c:	02c12d83          	lw	s11,44(sp)
80003880:	06010113          	add	sp,sp,96
80003884:	00008067          	ret
80003888:	00812603          	lw	a2,8(sp)
8000388c:	00c12503          	lw	a0,12(sp)
80003890:	800117b7          	lui	a5,0x80011
80003894:	000d0693          	mv	a3,s10
80003898:	00078593          	mv	a1,a5
8000389c:	975ff0ef          	jal	80003210 <copy_file>
800038a0:	00a12223          	sw	a0,4(sp)
800038a4:	f98b8ee3          	beq	s7,s8,80003840 <read_file+0x14c>
800038a8:	fff00793          	li	a5,-1
800038ac:	0094dc13          	srl	s8,s1,0x9
800038b0:	1ff4f493          	and	s1,s1,511
800038b4:	00f90463          	beq	s2,a5,800038bc <read_file+0x1c8>
800038b8:	032c0063          	beq	s8,s2,800038d8 <read_file+0x1e4>
800038bc:	00012783          	lw	a5,0(sp)
800038c0:	00bc1593          	sll	a1,s8,0xb
800038c4:	0095d593          	srl	a1,a1,0x9
800038c8:	00400613          	li	a2,4
800038cc:	00f585b3          	add	a1,a1,a5
800038d0:	200b0513          	add	a0,s6,512 # 80011200 <fat>
800038d4:	3f0000ef          	jal	80003cc4 <sd_copy>
800038d8:	00249493          	sll	s1,s1,0x2
800038dc:	200b0793          	add	a5,s6,512
800038e0:	009787b3          	add	a5,a5,s1
800038e4:	0007a483          	lw	s1,0(a5) # 80011000 <lba_buf>
800038e8:	f49cece3          	bltu	s9,s1,80003840 <read_file+0x14c>
800038ec:	000c0913          	mv	s2,s8
800038f0:	efdff06f          	j	800037ec <read_file+0xf8>
800038f4:	80012537          	lui	a0,0x80012
800038f8:	f1050513          	add	a0,a0,-240 # 80011f10 <const_ff+0x510>
800038fc:	ee9fe0ef          	jal	800027e4 <printf>
80003900:	00012223          	sw	zero,4(sp)
80003904:	f45ff06f          	j	80003848 <read_file+0x154>

80003908 <sd_dummy>:
80003908:	0ff00513          	li	a0,255
8000390c:	7b80006f          	j	800040c4 <spi_txrx>

80003910 <sd_cmd>:
80003910:	ff010113          	add	sp,sp,-16
80003914:	01212023          	sw	s2,0(sp)
80003918:	00050913          	mv	s2,a0
8000391c:	0ff00513          	li	a0,255
80003920:	00112623          	sw	ra,12(sp)
80003924:	00812423          	sw	s0,8(sp)
80003928:	00912223          	sw	s1,4(sp)
8000392c:	00058413          	mv	s0,a1
80003930:	00060493          	mv	s1,a2
80003934:	790000ef          	jal	800040c4 <spi_txrx>
80003938:	04096513          	or	a0,s2,64
8000393c:	788000ef          	jal	800040c4 <spi_txrx>
80003940:	01845513          	srl	a0,s0,0x18
80003944:	780000ef          	jal	800040c4 <spi_txrx>
80003948:	01045513          	srl	a0,s0,0x10
8000394c:	0ff57513          	zext.b	a0,a0
80003950:	774000ef          	jal	800040c4 <spi_txrx>
80003954:	00845513          	srl	a0,s0,0x8
80003958:	0ff57513          	zext.b	a0,a0
8000395c:	768000ef          	jal	800040c4 <spi_txrx>
80003960:	0ff47513          	zext.b	a0,s0
80003964:	760000ef          	jal	800040c4 <spi_txrx>
80003968:	00048513          	mv	a0,s1
8000396c:	758000ef          	jal	800040c4 <spi_txrx>
80003970:	06400413          	li	s0,100
80003974:	0080006f          	j	8000397c <sd_cmd+0x6c>
80003978:	00040c63          	beqz	s0,80003990 <sd_cmd+0x80>
8000397c:	0ff00513          	li	a0,255
80003980:	744000ef          	jal	800040c4 <spi_txrx>
80003984:	0ff00793          	li	a5,255
80003988:	fff40413          	add	s0,s0,-1
8000398c:	fef506e3          	beq	a0,a5,80003978 <sd_cmd+0x68>
80003990:	00c12083          	lw	ra,12(sp)
80003994:	00812403          	lw	s0,8(sp)
80003998:	00412483          	lw	s1,4(sp)
8000399c:	00012903          	lw	s2,0(sp)
800039a0:	01010113          	add	sp,sp,16
800039a4:	00008067          	ret

800039a8 <print_status>:
800039a8:	00008067          	ret

800039ac <sd_cmd0>:
800039ac:	ff010113          	add	sp,sp,-16
800039b0:	00912223          	sw	s1,4(sp)
800039b4:	01212023          	sw	s2,0(sp)
800039b8:	00112623          	sw	ra,12(sp)
800039bc:	00812423          	sw	s0,8(sp)
800039c0:	3e800493          	li	s1,1000
800039c4:	00100913          	li	s2,1
800039c8:	09500613          	li	a2,149
800039cc:	00000593          	li	a1,0
800039d0:	00000513          	li	a0,0
800039d4:	f3dff0ef          	jal	80003910 <sd_cmd>
800039d8:	00050413          	mv	s0,a0
800039dc:	fff48493          	add	s1,s1,-1
800039e0:	0ff00513          	li	a0,255
800039e4:	6e0000ef          	jal	800040c4 <spi_txrx>
800039e8:	02048263          	beqz	s1,80003a0c <sd_cmd0+0x60>
800039ec:	fd241ee3          	bne	s0,s2,800039c8 <sd_cmd0+0x1c>
800039f0:	00c12083          	lw	ra,12(sp)
800039f4:	00812403          	lw	s0,8(sp)
800039f8:	00412483          	lw	s1,4(sp)
800039fc:	00012903          	lw	s2,0(sp)
80003a00:	00100513          	li	a0,1
80003a04:	01010113          	add	sp,sp,16
80003a08:	00008067          	ret
80003a0c:	00c12083          	lw	ra,12(sp)
80003a10:	00812403          	lw	s0,8(sp)
80003a14:	00412483          	lw	s1,4(sp)
80003a18:	00012903          	lw	s2,0(sp)
80003a1c:	00000513          	li	a0,0
80003a20:	01010113          	add	sp,sp,16
80003a24:	00008067          	ret

80003a28 <sd_cmd8>:
80003a28:	ff010113          	add	sp,sp,-16
80003a2c:	08700613          	li	a2,135
80003a30:	1aa00593          	li	a1,426
80003a34:	00800513          	li	a0,8
80003a38:	00112623          	sw	ra,12(sp)
80003a3c:	00812423          	sw	s0,8(sp)
80003a40:	00912223          	sw	s1,4(sp)
80003a44:	01212023          	sw	s2,0(sp)
80003a48:	ec9ff0ef          	jal	80003910 <sd_cmd>
80003a4c:	00050413          	mv	s0,a0
80003a50:	0ff00513          	li	a0,255
80003a54:	670000ef          	jal	800040c4 <spi_txrx>
80003a58:	0ff00513          	li	a0,255
80003a5c:	668000ef          	jal	800040c4 <spi_txrx>
80003a60:	0ff00513          	li	a0,255
80003a64:	660000ef          	jal	800040c4 <spi_txrx>
80003a68:	00050493          	mv	s1,a0
80003a6c:	0ff00513          	li	a0,255
80003a70:	654000ef          	jal	800040c4 <spi_txrx>
80003a74:	00050913          	mv	s2,a0
80003a78:	0ff00513          	li	a0,255
80003a7c:	648000ef          	jal	800040c4 <spi_txrx>
80003a80:	0ff00513          	li	a0,255
80003a84:	640000ef          	jal	800040c4 <spi_txrx>
80003a88:	00100793          	li	a5,1
80003a8c:	00000513          	li	a0,0
80003a90:	00f40e63          	beq	s0,a5,80003aac <sd_cmd8+0x84>
80003a94:	00c12083          	lw	ra,12(sp)
80003a98:	00812403          	lw	s0,8(sp)
80003a9c:	00412483          	lw	s1,4(sp)
80003aa0:	00012903          	lw	s2,0(sp)
80003aa4:	01010113          	add	sp,sp,16
80003aa8:	00008067          	ret
80003aac:	00f4f793          	and	a5,s1,15
80003ab0:	fe8792e3          	bne	a5,s0,80003a94 <sd_cmd8+0x6c>
80003ab4:	00c12083          	lw	ra,12(sp)
80003ab8:	00812403          	lw	s0,8(sp)
80003abc:	f5690793          	add	a5,s2,-170
80003ac0:	00412483          	lw	s1,4(sp)
80003ac4:	00012903          	lw	s2,0(sp)
80003ac8:	0017b513          	seqz	a0,a5
80003acc:	01010113          	add	sp,sp,16
80003ad0:	00008067          	ret

80003ad4 <sd_cmd55>:
80003ad4:	ff010113          	add	sp,sp,-16
80003ad8:	06500613          	li	a2,101
80003adc:	00000593          	li	a1,0
80003ae0:	03700513          	li	a0,55
80003ae4:	00112623          	sw	ra,12(sp)
80003ae8:	00812423          	sw	s0,8(sp)
80003aec:	e25ff0ef          	jal	80003910 <sd_cmd>
80003af0:	00050413          	mv	s0,a0
80003af4:	0ff00513          	li	a0,255
80003af8:	5cc000ef          	jal	800040c4 <spi_txrx>
80003afc:	00c12083          	lw	ra,12(sp)
80003b00:	fff40513          	add	a0,s0,-1
80003b04:	00812403          	lw	s0,8(sp)
80003b08:	00153513          	seqz	a0,a0
80003b0c:	01010113          	add	sp,sp,16
80003b10:	00008067          	ret

80003b14 <sd_acmd41>:
80003b14:	ff010113          	add	sp,sp,-16
80003b18:	00912223          	sw	s1,4(sp)
80003b1c:	00112623          	sw	ra,12(sp)
80003b20:	00812423          	sw	s0,8(sp)
80003b24:	00100493          	li	s1,1
80003b28:	06500613          	li	a2,101
80003b2c:	00000593          	li	a1,0
80003b30:	03700513          	li	a0,55
80003b34:	dddff0ef          	jal	80003910 <sd_cmd>
80003b38:	0ff00513          	li	a0,255
80003b3c:	588000ef          	jal	800040c4 <spi_txrx>
80003b40:	07700613          	li	a2,119
80003b44:	400005b7          	lui	a1,0x40000
80003b48:	02900513          	li	a0,41
80003b4c:	dc5ff0ef          	jal	80003910 <sd_cmd>
80003b50:	00050413          	mv	s0,a0
80003b54:	0ff00513          	li	a0,255
80003b58:	56c000ef          	jal	800040c4 <spi_txrx>
80003b5c:	fc9406e3          	beq	s0,s1,80003b28 <sd_acmd41+0x14>
80003b60:	00c12083          	lw	ra,12(sp)
80003b64:	00143513          	seqz	a0,s0
80003b68:	00812403          	lw	s0,8(sp)
80003b6c:	00412483          	lw	s1,4(sp)
80003b70:	01010113          	add	sp,sp,16
80003b74:	00008067          	ret

80003b78 <init_sd>:
80003b78:	ff010113          	add	sp,sp,-16
80003b7c:	00112623          	sw	ra,12(sp)
80003b80:	00812423          	sw	s0,8(sp)
80003b84:	00912223          	sw	s1,4(sp)
80003b88:	01212023          	sw	s2,0(sp)
80003b8c:	4f4000ef          	jal	80004080 <spi_init>
80003b90:	800127b7          	lui	a5,0x80012
80003b94:	a0078793          	add	a5,a5,-1536 # 80011a00 <const_ff>
80003b98:	08078693          	add	a3,a5,128
80003b9c:	fff00713          	li	a4,-1
80003ba0:	00e7a023          	sw	a4,0(a5)
80003ba4:	00478793          	add	a5,a5,4
80003ba8:	fef69ce3          	bne	a3,a5,80003ba0 <init_sd+0x28>
80003bac:	00a00413          	li	s0,10
80003bb0:	fff40413          	add	s0,s0,-1
80003bb4:	0ff00513          	li	a0,255
80003bb8:	50c000ef          	jal	800040c4 <spi_txrx>
80003bbc:	fe041ae3          	bnez	s0,80003bb0 <init_sd+0x38>
80003bc0:	3e800493          	li	s1,1000
80003bc4:	00100913          	li	s2,1
80003bc8:	09500613          	li	a2,149
80003bcc:	00000593          	li	a1,0
80003bd0:	00000513          	li	a0,0
80003bd4:	d3dff0ef          	jal	80003910 <sd_cmd>
80003bd8:	00050413          	mv	s0,a0
80003bdc:	fff48493          	add	s1,s1,-1
80003be0:	0ff00513          	li	a0,255
80003be4:	4e0000ef          	jal	800040c4 <spi_txrx>
80003be8:	02048a63          	beqz	s1,80003c1c <init_sd+0xa4>
80003bec:	fd241ee3          	bne	s0,s2,80003bc8 <init_sd+0x50>
80003bf0:	e39ff0ef          	jal	80003a28 <sd_cmd8>
80003bf4:	04050263          	beqz	a0,80003c38 <init_sd+0xc0>
80003bf8:	f1dff0ef          	jal	80003b14 <sd_acmd41>
80003bfc:	04050263          	beqz	a0,80003c40 <init_sd+0xc8>
80003c00:	00000513          	li	a0,0
80003c04:	00c12083          	lw	ra,12(sp)
80003c08:	00812403          	lw	s0,8(sp)
80003c0c:	00412483          	lw	s1,4(sp)
80003c10:	00012903          	lw	s2,0(sp)
80003c14:	01010113          	add	sp,sp,16
80003c18:	00008067          	ret
80003c1c:	00c12083          	lw	ra,12(sp)
80003c20:	00812403          	lw	s0,8(sp)
80003c24:	00412483          	lw	s1,4(sp)
80003c28:	00012903          	lw	s2,0(sp)
80003c2c:	fff00513          	li	a0,-1
80003c30:	01010113          	add	sp,sp,16
80003c34:	00008067          	ret
80003c38:	ffe00513          	li	a0,-2
80003c3c:	fc9ff06f          	j	80003c04 <init_sd+0x8c>
80003c40:	ffd00513          	li	a0,-3
80003c44:	fc1ff06f          	j	80003c04 <init_sd+0x8c>

80003c48 <crc7>:
80003c48:	00b575b3          	and	a1,a0,a1
80003c4c:	0075d793          	srl	a5,a1,0x7
80003c50:	0045d513          	srl	a0,a1,0x4
80003c54:	00f54533          	xor	a0,a0,a5
80003c58:	00b54533          	xor	a0,a0,a1
80003c5c:	00451793          	sll	a5,a0,0x4
80003c60:	0ff7f793          	zext.b	a5,a5
80003c64:	00f54533          	xor	a0,a0,a5
80003c68:	07f57513          	and	a0,a0,127
80003c6c:	00008067          	ret

80003c70 <crc16>:
80003c70:	00851793          	sll	a5,a0,0x8
80003c74:	00855513          	srl	a0,a0,0x8
80003c78:	00a7e7b3          	or	a5,a5,a0
80003c7c:	01079793          	sll	a5,a5,0x10
80003c80:	0107d793          	srl	a5,a5,0x10
80003c84:	00f5c5b3          	xor	a1,a1,a5
80003c88:	0045d793          	srl	a5,a1,0x4
80003c8c:	00f7f793          	and	a5,a5,15
80003c90:	00f5c5b3          	xor	a1,a1,a5
80003c94:	00c59513          	sll	a0,a1,0xc
80003c98:	00b54533          	xor	a0,a0,a1
80003c9c:	01051793          	sll	a5,a0,0x10
80003ca0:	0107d793          	srl	a5,a5,0x10
80003ca4:	00002737          	lui	a4,0x2
80003ca8:	fe070713          	add	a4,a4,-32 # 1fe0 <__stack_size+0x17e0>
80003cac:	00579793          	sll	a5,a5,0x5
80003cb0:	00e7f7b3          	and	a5,a5,a4
80003cb4:	00f54533          	xor	a0,a0,a5
80003cb8:	01051513          	sll	a0,a0,0x10
80003cbc:	01055513          	srl	a0,a0,0x10
80003cc0:	00008067          	ret

80003cc4 <sd_copy>:
80003cc4:	fd010113          	add	sp,sp,-48
80003cc8:	01412c23          	sw	s4,24(sp)
80003ccc:	01512a23          	sw	s5,20(sp)
80003cd0:	00060a13          	mv	s4,a2
80003cd4:	00050a93          	mv	s5,a0
80003cd8:	00100613          	li	a2,1
80003cdc:	01200513          	li	a0,18
80003ce0:	02112623          	sw	ra,44(sp)
80003ce4:	02812423          	sw	s0,40(sp)
80003ce8:	02912223          	sw	s1,36(sp)
80003cec:	03212023          	sw	s2,32(sp)
80003cf0:	01312e23          	sw	s3,28(sp)
80003cf4:	01612823          	sw	s6,16(sp)
80003cf8:	01712623          	sw	s7,12(sp)
80003cfc:	c15ff0ef          	jal	80003910 <sd_cmd>
80003d00:	12051863          	bnez	a0,80003e30 <sd_copy+0x16c>
80003d04:	00002b37          	lui	s6,0x2
80003d08:	80012937          	lui	s2,0x80012
80003d0c:	0fe00493          	li	s1,254
80003d10:	fe0b0b13          	add	s6,s6,-32 # 1fe0 <__stack_size+0x17e0>
80003d14:	0ff00513          	li	a0,255
80003d18:	3ac000ef          	jal	800040c4 <spi_txrx>
80003d1c:	fe951ce3          	bne	a0,s1,80003d14 <sd_copy+0x50>
80003d20:	000a8b93          	mv	s7,s5
80003d24:	00000413          	li	s0,0
80003d28:	040a8a93          	add	s5,s5,64
80003d2c:	200b8993          	add	s3,s7,512
80003d30:	000b8613          	mv	a2,s7
80003d34:	04000593          	li	a1,64
80003d38:	a0090513          	add	a0,s2,-1536 # 80011a00 <const_ff>
80003d3c:	3f0000ef          	jal	8000412c <spi_write_bytes>
80003d40:	000b8693          	mv	a3,s7
80003d44:	00841713          	sll	a4,s0,0x8
80003d48:	00845413          	srl	s0,s0,0x8
80003d4c:	0006c783          	lbu	a5,0(a3)
80003d50:	00876733          	or	a4,a4,s0
80003d54:	01071713          	sll	a4,a4,0x10
80003d58:	01075713          	srl	a4,a4,0x10
80003d5c:	00e7c7b3          	xor	a5,a5,a4
80003d60:	0047d713          	srl	a4,a5,0x4
80003d64:	00f77713          	and	a4,a4,15
80003d68:	00e7c7b3          	xor	a5,a5,a4
80003d6c:	00c79413          	sll	s0,a5,0xc
80003d70:	00f44433          	xor	s0,s0,a5
80003d74:	01041793          	sll	a5,s0,0x10
80003d78:	0107d793          	srl	a5,a5,0x10
80003d7c:	00579793          	sll	a5,a5,0x5
80003d80:	0167f7b3          	and	a5,a5,s6
80003d84:	00f44433          	xor	s0,s0,a5
80003d88:	01041413          	sll	s0,s0,0x10
80003d8c:	00168693          	add	a3,a3,1
80003d90:	01045413          	srl	s0,s0,0x10
80003d94:	fada98e3          	bne	s5,a3,80003d44 <sd_copy+0x80>
80003d98:	040b8b93          	add	s7,s7,64
80003d9c:	040a8a93          	add	s5,s5,64
80003da0:	f93b98e3          	bne	s7,s3,80003d30 <sd_copy+0x6c>
80003da4:	0ff00513          	li	a0,255
80003da8:	31c000ef          	jal	800040c4 <spi_txrx>
80003dac:	00851993          	sll	s3,a0,0x8
80003db0:	01099993          	sll	s3,s3,0x10
80003db4:	0ff00513          	li	a0,255
80003db8:	0109d993          	srl	s3,s3,0x10
80003dbc:	308000ef          	jal	800040c4 <spi_txrx>
80003dc0:	013567b3          	or	a5,a0,s3
80003dc4:	01079793          	sll	a5,a5,0x10
80003dc8:	0107d793          	srl	a5,a5,0x10
80003dcc:	000b8a93          	mv	s5,s7
80003dd0:	00879a63          	bne	a5,s0,80003de4 <sd_copy+0x120>
80003dd4:	fffa0a13          	add	s4,s4,-1
80003dd8:	f3404ee3          	bgtz	s4,80003d14 <sd_copy+0x50>
80003ddc:	00000413          	li	s0,0
80003de0:	0080006f          	j	80003de8 <sd_copy+0x124>
80003de4:	ffc00413          	li	s0,-4
80003de8:	00100613          	li	a2,1
80003dec:	00000593          	li	a1,0
80003df0:	00c00513          	li	a0,12
80003df4:	b1dff0ef          	jal	80003910 <sd_cmd>
80003df8:	0ff00513          	li	a0,255
80003dfc:	2c8000ef          	jal	800040c4 <spi_txrx>
80003e00:	02c12083          	lw	ra,44(sp)
80003e04:	00040513          	mv	a0,s0
80003e08:	02812403          	lw	s0,40(sp)
80003e0c:	02412483          	lw	s1,36(sp)
80003e10:	02012903          	lw	s2,32(sp)
80003e14:	01c12983          	lw	s3,28(sp)
80003e18:	01812a03          	lw	s4,24(sp)
80003e1c:	01412a83          	lw	s5,20(sp)
80003e20:	01012b03          	lw	s6,16(sp)
80003e24:	00c12b83          	lw	s7,12(sp)
80003e28:	03010113          	add	sp,sp,48
80003e2c:	00008067          	ret
80003e30:	00800413          	li	s0,8
80003e34:	fff40413          	add	s0,s0,-1
80003e38:	0ff00513          	li	a0,255
80003e3c:	288000ef          	jal	800040c4 <spi_txrx>
80003e40:	fe041ae3          	bnez	s0,80003e34 <sd_copy+0x170>
80003e44:	80012537          	lui	a0,0x80012
80003e48:	f2c50513          	add	a0,a0,-212 # 80011f2c <const_ff+0x52c>
80003e4c:	999fe0ef          	jal	800027e4 <printf>
80003e50:	fff00413          	li	s0,-1
80003e54:	fadff06f          	j	80003e00 <sd_copy+0x13c>

80003e58 <sd_write>:
80003e58:	fb010113          	add	sp,sp,-80
80003e5c:	03312e23          	sw	s3,60(sp)
80003e60:	03912223          	sw	s9,36(sp)
80003e64:	00060993          	mv	s3,a2
80003e68:	00050c93          	mv	s9,a0
80003e6c:	00100613          	li	a2,1
80003e70:	01900513          	li	a0,25
80003e74:	04112623          	sw	ra,76(sp)
80003e78:	04812423          	sw	s0,72(sp)
80003e7c:	04912223          	sw	s1,68(sp)
80003e80:	05212023          	sw	s2,64(sp)
80003e84:	03412c23          	sw	s4,56(sp)
80003e88:	03512a23          	sw	s5,52(sp)
80003e8c:	03612823          	sw	s6,48(sp)
80003e90:	03712623          	sw	s7,44(sp)
80003e94:	03812423          	sw	s8,40(sp)
80003e98:	03a12023          	sw	s10,32(sp)
80003e9c:	01b12e23          	sw	s11,28(sp)
80003ea0:	a71ff0ef          	jal	80003910 <sd_cmd>
80003ea4:	1a051263          	bnez	a0,80004048 <sd_write+0x1f0>
80003ea8:	0ff00513          	li	a0,255
80003eac:	00002d37          	lui	s10,0x2
80003eb0:	214000ef          	jal	800040c4 <spi_txrx>
80003eb4:	800124b7          	lui	s1,0x80012
80003eb8:	fe0d0d13          	add	s10,s10,-32 # 1fe0 <__stack_size+0x17e0>
80003ebc:	00a00c13          	li	s8,10
80003ec0:	00c00b93          	li	s7,12
80003ec4:	00500b13          	li	s6,5
80003ec8:	3e800a93          	li	s5,1000
80003ecc:	80012a37          	lui	s4,0x80012
80003ed0:	000c8d93          	mv	s11,s9
80003ed4:	0fc00513          	li	a0,252
80003ed8:	1ec000ef          	jal	800040c4 <spi_txrx>
80003edc:	040c8c93          	add	s9,s9,64
80003ee0:	00000413          	li	s0,0
80003ee4:	200d8913          	add	s2,s11,512
80003ee8:	a0048613          	add	a2,s1,-1536 # 80011a00 <const_ff>
80003eec:	04000593          	li	a1,64
80003ef0:	000d8513          	mv	a0,s11
80003ef4:	238000ef          	jal	8000412c <spi_write_bytes>
80003ef8:	000d8693          	mv	a3,s11
80003efc:	00841713          	sll	a4,s0,0x8
80003f00:	00845413          	srl	s0,s0,0x8
80003f04:	0006c783          	lbu	a5,0(a3)
80003f08:	00876733          	or	a4,a4,s0
80003f0c:	01071713          	sll	a4,a4,0x10
80003f10:	01075713          	srl	a4,a4,0x10
80003f14:	00e7c7b3          	xor	a5,a5,a4
80003f18:	0047d713          	srl	a4,a5,0x4
80003f1c:	00f77713          	and	a4,a4,15
80003f20:	00e7c7b3          	xor	a5,a5,a4
80003f24:	00c79413          	sll	s0,a5,0xc
80003f28:	00f44433          	xor	s0,s0,a5
80003f2c:	01041793          	sll	a5,s0,0x10
80003f30:	0107d793          	srl	a5,a5,0x10
80003f34:	00579793          	sll	a5,a5,0x5
80003f38:	01a7f7b3          	and	a5,a5,s10
80003f3c:	00f44433          	xor	s0,s0,a5
80003f40:	01041793          	sll	a5,s0,0x10
80003f44:	00168693          	add	a3,a3,1
80003f48:	01041413          	sll	s0,s0,0x10
80003f4c:	4107d793          	sra	a5,a5,0x10
80003f50:	01045413          	srl	s0,s0,0x10
80003f54:	fb9694e3          	bne	a3,s9,80003efc <sd_write+0xa4>
80003f58:	040d8d93          	add	s11,s11,64
80003f5c:	04068c93          	add	s9,a3,64
80003f60:	f92d94e3          	bne	s11,s2,80003ee8 <sd_write+0x90>
80003f64:	00000513          	li	a0,0
80003f68:	00f12623          	sw	a5,12(sp)
80003f6c:	158000ef          	jal	800040c4 <spi_txrx>
80003f70:	00c12783          	lw	a5,12(sp)
80003f74:	000d8c93          	mv	s9,s11
80003f78:	0ff7f513          	zext.b	a0,a5
80003f7c:	148000ef          	jal	800040c4 <spi_txrx>
80003f80:	0ff00513          	li	a0,255
80003f84:	140000ef          	jal	800040c4 <spi_txrx>
80003f88:	0ff00793          	li	a5,255
80003f8c:	fef50ae3          	beq	a0,a5,80003f80 <sd_write+0x128>
80003f90:	01f57513          	and	a0,a0,31
80003f94:	03850e63          	beq	a0,s8,80003fd0 <sd_write+0x178>
80003f98:	0b750463          	beq	a0,s7,80004040 <sd_write+0x1e8>
80003f9c:	09651e63          	bne	a0,s6,80004038 <sd_write+0x1e0>
80003fa0:	0ff00513          	li	a0,255
80003fa4:	120000ef          	jal	800040c4 <spi_txrx>
80003fa8:	fe050ce3          	beqz	a0,80003fa0 <sd_write+0x148>
80003fac:	0359e7b3          	rem	a5,s3,s5
80003fb0:	00078a63          	beqz	a5,80003fc4 <sd_write+0x16c>
80003fb4:	fff98993          	add	s3,s3,-1
80003fb8:	f1304ce3          	bgtz	s3,80003ed0 <sd_write+0x78>
80003fbc:	00000413          	li	s0,0
80003fc0:	0140006f          	j	80003fd4 <sd_write+0x17c>
80003fc4:	f64a0513          	add	a0,s4,-156 # 80011f64 <const_ff+0x564>
80003fc8:	81dfe0ef          	jal	800027e4 <printf>
80003fcc:	fe9ff06f          	j	80003fb4 <sd_write+0x15c>
80003fd0:	ffe00413          	li	s0,-2
80003fd4:	0fd00513          	li	a0,253
80003fd8:	0ec000ef          	jal	800040c4 <spi_txrx>
80003fdc:	0ff00513          	li	a0,255
80003fe0:	0e4000ef          	jal	800040c4 <spi_txrx>
80003fe4:	0ff00513          	li	a0,255
80003fe8:	0dc000ef          	jal	800040c4 <spi_txrx>
80003fec:	fe050ce3          	beqz	a0,80003fe4 <sd_write+0x18c>
80003ff0:	0ff00513          	li	a0,255
80003ff4:	0d0000ef          	jal	800040c4 <spi_txrx>
80003ff8:	04c12083          	lw	ra,76(sp)
80003ffc:	00040513          	mv	a0,s0
80004000:	04812403          	lw	s0,72(sp)
80004004:	04412483          	lw	s1,68(sp)
80004008:	04012903          	lw	s2,64(sp)
8000400c:	03c12983          	lw	s3,60(sp)
80004010:	03812a03          	lw	s4,56(sp)
80004014:	03412a83          	lw	s5,52(sp)
80004018:	03012b03          	lw	s6,48(sp)
8000401c:	02c12b83          	lw	s7,44(sp)
80004020:	02812c03          	lw	s8,40(sp)
80004024:	02412c83          	lw	s9,36(sp)
80004028:	02012d03          	lw	s10,32(sp)
8000402c:	01c12d83          	lw	s11,28(sp)
80004030:	05010113          	add	sp,sp,80
80004034:	00008067          	ret
80004038:	ffc00413          	li	s0,-4
8000403c:	f99ff06f          	j	80003fd4 <sd_write+0x17c>
80004040:	ffd00413          	li	s0,-3
80004044:	f91ff06f          	j	80003fd4 <sd_write+0x17c>
80004048:	00800413          	li	s0,8
8000404c:	fff40413          	add	s0,s0,-1
80004050:	0ff00513          	li	a0,255
80004054:	070000ef          	jal	800040c4 <spi_txrx>
80004058:	fe041ae3          	bnez	s0,8000404c <sd_write+0x1f4>
8000405c:	80012537          	lui	a0,0x80012
80004060:	f4850513          	add	a0,a0,-184 # 80011f48 <const_ff+0x548>
80004064:	f80fe0ef          	jal	800027e4 <printf>
80004068:	fff00413          	li	s0,-1
8000406c:	f8dff06f          	j	80003ff8 <sd_write+0x1a0>

80004070 <write_reg>:
80004070:	00b52023          	sw	a1,0(a0)
80004074:	00008067          	ret

80004078 <read_reg>:
80004078:	00052503          	lw	a0,0(a0)
8000407c:	00008067          	ret

80004080 <spi_init>:
80004080:	c20007b7          	lui	a5,0xc2000
80004084:	00a00713          	li	a4,10
80004088:	04e7a023          	sw	a4,64(a5) # c2000040 <__freertos_irq_stack_top+0x41ded710>
8000408c:	00a00793          	li	a5,10
80004090:	00000013          	nop
80004094:	fff78793          	add	a5,a5,-1
80004098:	fe079ce3          	bnez	a5,80004090 <spi_init+0x10>
8000409c:	c20007b7          	lui	a5,0xc2000
800040a0:	10400713          	li	a4,260
800040a4:	06e7a023          	sw	a4,96(a5) # c2000060 <__freertos_irq_stack_top+0x41ded730>
800040a8:	0647a703          	lw	a4,100(a5)
800040ac:	16600713          	li	a4,358
800040b0:	06e7a023          	sw	a4,96(a5)
800040b4:	0647a703          	lw	a4,100(a5)
800040b8:	00600713          	li	a4,6
800040bc:	06e7a023          	sw	a4,96(a5)
800040c0:	00008067          	ret

800040c4 <spi_txrx>:
800040c4:	c20007b7          	lui	a5,0xc2000
800040c8:	ffe00713          	li	a4,-2
800040cc:	06e7a823          	sw	a4,112(a5) # c2000070 <__freertos_irq_stack_top+0x41ded740>
800040d0:	06a7a423          	sw	a0,104(a5)
800040d4:	1f400793          	li	a5,500
800040d8:	00000013          	nop
800040dc:	fff78793          	add	a5,a5,-1
800040e0:	fe079ce3          	bnez	a5,800040d8 <spi_txrx+0x14>
800040e4:	10600713          	li	a4,262
800040e8:	c20007b7          	lui	a5,0xc2000
800040ec:	06e7a023          	sw	a4,96(a5) # c2000060 <__freertos_irq_stack_top+0x41ded730>
800040f0:	c2000737          	lui	a4,0xc2000
800040f4:	06472783          	lw	a5,100(a4) # c2000064 <__freertos_irq_stack_top+0x41ded734>
800040f8:	0017f793          	and	a5,a5,1
800040fc:	fe079ce3          	bnez	a5,800040f4 <spi_txrx+0x30>
80004100:	06c72503          	lw	a0,108(a4)
80004104:	c2000737          	lui	a4,0xc2000
80004108:	0ff57513          	zext.b	a0,a0
8000410c:	06472783          	lw	a5,100(a4) # c2000064 <__freertos_irq_stack_top+0x41ded734>
80004110:	0017f793          	and	a5,a5,1
80004114:	fe078ce3          	beqz	a5,8000410c <spi_txrx+0x48>
80004118:	fff00793          	li	a5,-1
8000411c:	06f72823          	sw	a5,112(a4)
80004120:	00600793          	li	a5,6
80004124:	06f72023          	sw	a5,96(a4)
80004128:	00008067          	ret

8000412c <spi_write_bytes>:
8000412c:	10000793          	li	a5,256
80004130:	0ab7e463          	bltu	a5,a1,800041d8 <spi_write_bytes+0xac>
80004134:	c20007b7          	lui	a5,0xc2000
80004138:	ffe00713          	li	a4,-2
8000413c:	06e7a823          	sw	a4,112(a5) # c2000070 <__freertos_irq_stack_top+0x41ded740>
80004140:	00058e63          	beqz	a1,8000415c <spi_write_bytes+0x30>
80004144:	00b506b3          	add	a3,a0,a1
80004148:	c2000737          	lui	a4,0xc2000
8000414c:	00054783          	lbu	a5,0(a0)
80004150:	00150513          	add	a0,a0,1
80004154:	06f72423          	sw	a5,104(a4) # c2000068 <__freertos_irq_stack_top+0x41ded738>
80004158:	fed51ae3          	bne	a0,a3,8000414c <spi_write_bytes+0x20>
8000415c:	1f400793          	li	a5,500
80004160:	00000013          	nop
80004164:	fff78793          	add	a5,a5,-1
80004168:	fe079ce3          	bnez	a5,80004160 <spi_write_bytes+0x34>
8000416c:	10600713          	li	a4,262
80004170:	c20007b7          	lui	a5,0xc2000
80004174:	06e7a023          	sw	a4,96(a5) # c2000060 <__freertos_irq_stack_top+0x41ded730>
80004178:	c2000737          	lui	a4,0xc2000
8000417c:	06472783          	lw	a5,100(a4) # c2000064 <__freertos_irq_stack_top+0x41ded734>
80004180:	0017f793          	and	a5,a5,1
80004184:	fe079ce3          	bnez	a5,8000417c <spi_write_bytes+0x50>
80004188:	02058463          	beqz	a1,800041b0 <spi_write_bytes+0x84>
8000418c:	00b60733          	add	a4,a2,a1
80004190:	c20006b7          	lui	a3,0xc2000
80004194:	0646a783          	lw	a5,100(a3) # c2000064 <__freertos_irq_stack_top+0x41ded734>
80004198:	0017f793          	and	a5,a5,1
8000419c:	00079663          	bnez	a5,800041a8 <spi_write_bytes+0x7c>
800041a0:	06c6a783          	lw	a5,108(a3)
800041a4:	00f60023          	sb	a5,0(a2)
800041a8:	00160613          	add	a2,a2,1
800041ac:	fee614e3          	bne	a2,a4,80004194 <spi_write_bytes+0x68>
800041b0:	c2000737          	lui	a4,0xc2000
800041b4:	06472783          	lw	a5,100(a4) # c2000064 <__freertos_irq_stack_top+0x41ded734>
800041b8:	0017f793          	and	a5,a5,1
800041bc:	fe078ce3          	beqz	a5,800041b4 <spi_write_bytes+0x88>
800041c0:	fff00793          	li	a5,-1
800041c4:	06f72823          	sw	a5,112(a4)
800041c8:	00600793          	li	a5,6
800041cc:	06f72023          	sw	a5,96(a4)
800041d0:	00000513          	li	a0,0
800041d4:	00008067          	ret
800041d8:	fff00513          	li	a0,-1
800041dc:	00008067          	ret

800041e0 <__divdi3>:
800041e0:	00050313          	mv	t1,a0
800041e4:	00058e13          	mv	t3,a1
800041e8:	00000893          	li	a7,0
800041ec:	0005dc63          	bgez	a1,80004204 <__divdi3+0x24>
800041f0:	00a037b3          	snez	a5,a0
800041f4:	40b00e33          	neg	t3,a1
800041f8:	40fe0e33          	sub	t3,t3,a5
800041fc:	40a00333          	neg	t1,a0
80004200:	fff00893          	li	a7,-1
80004204:	0006dc63          	bgez	a3,8000421c <__divdi3+0x3c>
80004208:	00c037b3          	snez	a5,a2
8000420c:	40d006b3          	neg	a3,a3
80004210:	fff8c893          	not	a7,a7
80004214:	40f686b3          	sub	a3,a3,a5
80004218:	40c00633          	neg	a2,a2
8000421c:	00060713          	mv	a4,a2
80004220:	00030813          	mv	a6,t1
80004224:	000e0793          	mv	a5,t3
80004228:	28069c63          	bnez	a3,800044c0 <__divdi3+0x2e0>
8000422c:	800125b7          	lui	a1,0x80012
80004230:	fe058593          	add	a1,a1,-32 # 80011fe0 <__clz_tab>
80004234:	0ece7663          	bgeu	t3,a2,80004320 <__divdi3+0x140>
80004238:	000106b7          	lui	a3,0x10
8000423c:	0cd67863          	bgeu	a2,a3,8000430c <__divdi3+0x12c>
80004240:	10063693          	sltiu	a3,a2,256
80004244:	0016c693          	xor	a3,a3,1
80004248:	00369693          	sll	a3,a3,0x3
8000424c:	00d65533          	srl	a0,a2,a3
80004250:	00a585b3          	add	a1,a1,a0
80004254:	0005c583          	lbu	a1,0(a1)
80004258:	02000513          	li	a0,32
8000425c:	00d586b3          	add	a3,a1,a3
80004260:	40d505b3          	sub	a1,a0,a3
80004264:	00d50c63          	beq	a0,a3,8000427c <__divdi3+0x9c>
80004268:	00be17b3          	sll	a5,t3,a1
8000426c:	00d356b3          	srl	a3,t1,a3
80004270:	00b61733          	sll	a4,a2,a1
80004274:	00f6e7b3          	or	a5,a3,a5
80004278:	00b31833          	sll	a6,t1,a1
8000427c:	01075593          	srl	a1,a4,0x10
80004280:	02b7de33          	divu	t3,a5,a1
80004284:	01071613          	sll	a2,a4,0x10
80004288:	01065613          	srl	a2,a2,0x10
8000428c:	02b7f7b3          	remu	a5,a5,a1
80004290:	000e0513          	mv	a0,t3
80004294:	03c60333          	mul	t1,a2,t3
80004298:	01079693          	sll	a3,a5,0x10
8000429c:	01085793          	srl	a5,a6,0x10
800042a0:	00d7e7b3          	or	a5,a5,a3
800042a4:	0067fe63          	bgeu	a5,t1,800042c0 <__divdi3+0xe0>
800042a8:	00f707b3          	add	a5,a4,a5
800042ac:	fffe0513          	add	a0,t3,-1
800042b0:	00e7e863          	bltu	a5,a4,800042c0 <__divdi3+0xe0>
800042b4:	0067f663          	bgeu	a5,t1,800042c0 <__divdi3+0xe0>
800042b8:	ffee0513          	add	a0,t3,-2
800042bc:	00e787b3          	add	a5,a5,a4
800042c0:	406787b3          	sub	a5,a5,t1
800042c4:	02b7d333          	divu	t1,a5,a1
800042c8:	01081813          	sll	a6,a6,0x10
800042cc:	01085813          	srl	a6,a6,0x10
800042d0:	02b7f7b3          	remu	a5,a5,a1
800042d4:	026606b3          	mul	a3,a2,t1
800042d8:	01079793          	sll	a5,a5,0x10
800042dc:	00f86833          	or	a6,a6,a5
800042e0:	00030793          	mv	a5,t1
800042e4:	00d87c63          	bgeu	a6,a3,800042fc <__divdi3+0x11c>
800042e8:	01070833          	add	a6,a4,a6
800042ec:	fff30793          	add	a5,t1,-1
800042f0:	00e86663          	bltu	a6,a4,800042fc <__divdi3+0x11c>
800042f4:	00d87463          	bgeu	a6,a3,800042fc <__divdi3+0x11c>
800042f8:	ffe30793          	add	a5,t1,-2
800042fc:	01051513          	sll	a0,a0,0x10
80004300:	00f56533          	or	a0,a0,a5
80004304:	00000593          	li	a1,0
80004308:	0e00006f          	j	800043e8 <__divdi3+0x208>
8000430c:	01000537          	lui	a0,0x1000
80004310:	01000693          	li	a3,16
80004314:	f2a66ce3          	bltu	a2,a0,8000424c <__divdi3+0x6c>
80004318:	01800693          	li	a3,24
8000431c:	f31ff06f          	j	8000424c <__divdi3+0x6c>
80004320:	00000693          	li	a3,0
80004324:	00060c63          	beqz	a2,8000433c <__divdi3+0x15c>
80004328:	000107b7          	lui	a5,0x10
8000432c:	0cf67a63          	bgeu	a2,a5,80004400 <__divdi3+0x220>
80004330:	10063693          	sltiu	a3,a2,256
80004334:	0016c693          	xor	a3,a3,1
80004338:	00369693          	sll	a3,a3,0x3
8000433c:	00d657b3          	srl	a5,a2,a3
80004340:	00f585b3          	add	a1,a1,a5
80004344:	0005c783          	lbu	a5,0(a1)
80004348:	00d787b3          	add	a5,a5,a3
8000434c:	02000693          	li	a3,32
80004350:	40f685b3          	sub	a1,a3,a5
80004354:	0cf69063          	bne	a3,a5,80004414 <__divdi3+0x234>
80004358:	40ce07b3          	sub	a5,t3,a2
8000435c:	00100593          	li	a1,1
80004360:	01075313          	srl	t1,a4,0x10
80004364:	0267deb3          	divu	t4,a5,t1
80004368:	01071613          	sll	a2,a4,0x10
8000436c:	01065613          	srl	a2,a2,0x10
80004370:	01085693          	srl	a3,a6,0x10
80004374:	0267f7b3          	remu	a5,a5,t1
80004378:	000e8513          	mv	a0,t4
8000437c:	03d60e33          	mul	t3,a2,t4
80004380:	01079793          	sll	a5,a5,0x10
80004384:	00f6e7b3          	or	a5,a3,a5
80004388:	01c7fe63          	bgeu	a5,t3,800043a4 <__divdi3+0x1c4>
8000438c:	00f707b3          	add	a5,a4,a5
80004390:	fffe8513          	add	a0,t4,-1
80004394:	00e7e863          	bltu	a5,a4,800043a4 <__divdi3+0x1c4>
80004398:	01c7f663          	bgeu	a5,t3,800043a4 <__divdi3+0x1c4>
8000439c:	ffee8513          	add	a0,t4,-2
800043a0:	00e787b3          	add	a5,a5,a4
800043a4:	41c787b3          	sub	a5,a5,t3
800043a8:	0267de33          	divu	t3,a5,t1
800043ac:	01081813          	sll	a6,a6,0x10
800043b0:	01085813          	srl	a6,a6,0x10
800043b4:	0267f7b3          	remu	a5,a5,t1
800043b8:	03c606b3          	mul	a3,a2,t3
800043bc:	01079793          	sll	a5,a5,0x10
800043c0:	00f86833          	or	a6,a6,a5
800043c4:	000e0793          	mv	a5,t3
800043c8:	00d87c63          	bgeu	a6,a3,800043e0 <__divdi3+0x200>
800043cc:	01070833          	add	a6,a4,a6
800043d0:	fffe0793          	add	a5,t3,-1
800043d4:	00e86663          	bltu	a6,a4,800043e0 <__divdi3+0x200>
800043d8:	00d87463          	bgeu	a6,a3,800043e0 <__divdi3+0x200>
800043dc:	ffee0793          	add	a5,t3,-2
800043e0:	01051513          	sll	a0,a0,0x10
800043e4:	00f56533          	or	a0,a0,a5
800043e8:	00088a63          	beqz	a7,800043fc <__divdi3+0x21c>
800043ec:	00a037b3          	snez	a5,a0
800043f0:	40b005b3          	neg	a1,a1
800043f4:	40f585b3          	sub	a1,a1,a5
800043f8:	40a00533          	neg	a0,a0
800043fc:	00008067          	ret
80004400:	010007b7          	lui	a5,0x1000
80004404:	01000693          	li	a3,16
80004408:	f2f66ae3          	bltu	a2,a5,8000433c <__divdi3+0x15c>
8000440c:	01800693          	li	a3,24
80004410:	f2dff06f          	j	8000433c <__divdi3+0x15c>
80004414:	00b61733          	sll	a4,a2,a1
80004418:	00fe56b3          	srl	a3,t3,a5
8000441c:	01075513          	srl	a0,a4,0x10
80004420:	00be1e33          	sll	t3,t3,a1
80004424:	00f357b3          	srl	a5,t1,a5
80004428:	01c7e7b3          	or	a5,a5,t3
8000442c:	02a6de33          	divu	t3,a3,a0
80004430:	01071613          	sll	a2,a4,0x10
80004434:	01065613          	srl	a2,a2,0x10
80004438:	00b31833          	sll	a6,t1,a1
8000443c:	02a6f6b3          	remu	a3,a3,a0
80004440:	03c60333          	mul	t1,a2,t3
80004444:	01069593          	sll	a1,a3,0x10
80004448:	0107d693          	srl	a3,a5,0x10
8000444c:	00b6e6b3          	or	a3,a3,a1
80004450:	000e0593          	mv	a1,t3
80004454:	0066fe63          	bgeu	a3,t1,80004470 <__divdi3+0x290>
80004458:	00d706b3          	add	a3,a4,a3
8000445c:	fffe0593          	add	a1,t3,-1
80004460:	00e6e863          	bltu	a3,a4,80004470 <__divdi3+0x290>
80004464:	0066f663          	bgeu	a3,t1,80004470 <__divdi3+0x290>
80004468:	ffee0593          	add	a1,t3,-2
8000446c:	00e686b3          	add	a3,a3,a4
80004470:	406686b3          	sub	a3,a3,t1
80004474:	02a6d333          	divu	t1,a3,a0
80004478:	01079793          	sll	a5,a5,0x10
8000447c:	0107d793          	srl	a5,a5,0x10
80004480:	02a6f6b3          	remu	a3,a3,a0
80004484:	02660633          	mul	a2,a2,t1
80004488:	01069693          	sll	a3,a3,0x10
8000448c:	00d7e7b3          	or	a5,a5,a3
80004490:	00030693          	mv	a3,t1
80004494:	00c7fe63          	bgeu	a5,a2,800044b0 <__divdi3+0x2d0>
80004498:	00f707b3          	add	a5,a4,a5
8000449c:	fff30693          	add	a3,t1,-1
800044a0:	00e7e863          	bltu	a5,a4,800044b0 <__divdi3+0x2d0>
800044a4:	00c7f663          	bgeu	a5,a2,800044b0 <__divdi3+0x2d0>
800044a8:	ffe30693          	add	a3,t1,-2
800044ac:	00e787b3          	add	a5,a5,a4
800044b0:	01059593          	sll	a1,a1,0x10
800044b4:	40c787b3          	sub	a5,a5,a2
800044b8:	00d5e5b3          	or	a1,a1,a3
800044bc:	ea5ff06f          	j	80004360 <__divdi3+0x180>
800044c0:	18de6663          	bltu	t3,a3,8000464c <__divdi3+0x46c>
800044c4:	000107b7          	lui	a5,0x10
800044c8:	04f6f463          	bgeu	a3,a5,80004510 <__divdi3+0x330>
800044cc:	1006b713          	sltiu	a4,a3,256
800044d0:	00174713          	xor	a4,a4,1
800044d4:	00371713          	sll	a4,a4,0x3
800044d8:	800127b7          	lui	a5,0x80012
800044dc:	00e6d5b3          	srl	a1,a3,a4
800044e0:	fe078793          	add	a5,a5,-32 # 80011fe0 <__clz_tab>
800044e4:	00b787b3          	add	a5,a5,a1
800044e8:	0007c783          	lbu	a5,0(a5)
800044ec:	00e787b3          	add	a5,a5,a4
800044f0:	02000713          	li	a4,32
800044f4:	40f705b3          	sub	a1,a4,a5
800044f8:	02f71663          	bne	a4,a5,80004524 <__divdi3+0x344>
800044fc:	00100513          	li	a0,1
80004500:	efc6e4e3          	bltu	a3,t3,800043e8 <__divdi3+0x208>
80004504:	00c33533          	sltu	a0,t1,a2
80004508:	00154513          	xor	a0,a0,1
8000450c:	eddff06f          	j	800043e8 <__divdi3+0x208>
80004510:	010007b7          	lui	a5,0x1000
80004514:	01000713          	li	a4,16
80004518:	fcf6e0e3          	bltu	a3,a5,800044d8 <__divdi3+0x2f8>
8000451c:	01800713          	li	a4,24
80004520:	fb9ff06f          	j	800044d8 <__divdi3+0x2f8>
80004524:	00f65733          	srl	a4,a2,a5
80004528:	00b696b3          	sll	a3,a3,a1
8000452c:	00d766b3          	or	a3,a4,a3
80004530:	00fe5733          	srl	a4,t3,a5
80004534:	00be1e33          	sll	t3,t3,a1
80004538:	00f357b3          	srl	a5,t1,a5
8000453c:	01c7e7b3          	or	a5,a5,t3
80004540:	0106de13          	srl	t3,a3,0x10
80004544:	03c75f33          	divu	t5,a4,t3
80004548:	01069813          	sll	a6,a3,0x10
8000454c:	01085813          	srl	a6,a6,0x10
80004550:	00b61633          	sll	a2,a2,a1
80004554:	03c77733          	remu	a4,a4,t3
80004558:	03e80eb3          	mul	t4,a6,t5
8000455c:	01071513          	sll	a0,a4,0x10
80004560:	0107d713          	srl	a4,a5,0x10
80004564:	00a76733          	or	a4,a4,a0
80004568:	000f0513          	mv	a0,t5
8000456c:	01d77e63          	bgeu	a4,t4,80004588 <__divdi3+0x3a8>
80004570:	00e68733          	add	a4,a3,a4
80004574:	ffff0513          	add	a0,t5,-1
80004578:	00d76863          	bltu	a4,a3,80004588 <__divdi3+0x3a8>
8000457c:	01d77663          	bgeu	a4,t4,80004588 <__divdi3+0x3a8>
80004580:	ffef0513          	add	a0,t5,-2
80004584:	00d70733          	add	a4,a4,a3
80004588:	41d70733          	sub	a4,a4,t4
8000458c:	03c75eb3          	divu	t4,a4,t3
80004590:	01079793          	sll	a5,a5,0x10
80004594:	0107d793          	srl	a5,a5,0x10
80004598:	03c77733          	remu	a4,a4,t3
8000459c:	03d80833          	mul	a6,a6,t4
800045a0:	01071713          	sll	a4,a4,0x10
800045a4:	00e7e7b3          	or	a5,a5,a4
800045a8:	000e8713          	mv	a4,t4
800045ac:	0107fe63          	bgeu	a5,a6,800045c8 <__divdi3+0x3e8>
800045b0:	00f687b3          	add	a5,a3,a5
800045b4:	fffe8713          	add	a4,t4,-1
800045b8:	00d7e863          	bltu	a5,a3,800045c8 <__divdi3+0x3e8>
800045bc:	0107f663          	bgeu	a5,a6,800045c8 <__divdi3+0x3e8>
800045c0:	ffee8713          	add	a4,t4,-2
800045c4:	00d787b3          	add	a5,a5,a3
800045c8:	01051513          	sll	a0,a0,0x10
800045cc:	00010eb7          	lui	t4,0x10
800045d0:	00e56533          	or	a0,a0,a4
800045d4:	fffe8693          	add	a3,t4,-1 # ffff <__stack_size+0xf7ff>
800045d8:	00d57733          	and	a4,a0,a3
800045dc:	410787b3          	sub	a5,a5,a6
800045e0:	00d676b3          	and	a3,a2,a3
800045e4:	01055813          	srl	a6,a0,0x10
800045e8:	01065613          	srl	a2,a2,0x10
800045ec:	02d70e33          	mul	t3,a4,a3
800045f0:	02d806b3          	mul	a3,a6,a3
800045f4:	02c70733          	mul	a4,a4,a2
800045f8:	02c80833          	mul	a6,a6,a2
800045fc:	00d70633          	add	a2,a4,a3
80004600:	010e5713          	srl	a4,t3,0x10
80004604:	00c70733          	add	a4,a4,a2
80004608:	00d77463          	bgeu	a4,a3,80004610 <__divdi3+0x430>
8000460c:	01d80833          	add	a6,a6,t4
80004610:	01075693          	srl	a3,a4,0x10
80004614:	010686b3          	add	a3,a3,a6
80004618:	02d7e663          	bltu	a5,a3,80004644 <__divdi3+0x464>
8000461c:	ced794e3          	bne	a5,a3,80004304 <__divdi3+0x124>
80004620:	000107b7          	lui	a5,0x10
80004624:	fff78793          	add	a5,a5,-1 # ffff <__stack_size+0xf7ff>
80004628:	00f77733          	and	a4,a4,a5
8000462c:	01071713          	sll	a4,a4,0x10
80004630:	00fe7e33          	and	t3,t3,a5
80004634:	00b31333          	sll	t1,t1,a1
80004638:	01c70733          	add	a4,a4,t3
8000463c:	00000593          	li	a1,0
80004640:	dae374e3          	bgeu	t1,a4,800043e8 <__divdi3+0x208>
80004644:	fff50513          	add	a0,a0,-1 # ffffff <__heap_size+0xdfffff>
80004648:	cbdff06f          	j	80004304 <__divdi3+0x124>
8000464c:	00000593          	li	a1,0
80004650:	00000513          	li	a0,0
80004654:	d95ff06f          	j	800043e8 <__divdi3+0x208>

80004658 <__udivdi3>:
80004658:	00050893          	mv	a7,a0
8000465c:	00058313          	mv	t1,a1
80004660:	00060713          	mv	a4,a2
80004664:	00050813          	mv	a6,a0
80004668:	00058793          	mv	a5,a1
8000466c:	28069263          	bnez	a3,800048f0 <__udivdi3+0x298>
80004670:	800125b7          	lui	a1,0x80012
80004674:	fe058593          	add	a1,a1,-32 # 80011fe0 <__clz_tab>
80004678:	0ec37663          	bgeu	t1,a2,80004764 <__udivdi3+0x10c>
8000467c:	000106b7          	lui	a3,0x10
80004680:	0cd67863          	bgeu	a2,a3,80004750 <__udivdi3+0xf8>
80004684:	10063693          	sltiu	a3,a2,256
80004688:	0016c693          	xor	a3,a3,1
8000468c:	00369693          	sll	a3,a3,0x3
80004690:	00d65533          	srl	a0,a2,a3
80004694:	00a585b3          	add	a1,a1,a0
80004698:	0005c583          	lbu	a1,0(a1)
8000469c:	02000513          	li	a0,32
800046a0:	00d586b3          	add	a3,a1,a3
800046a4:	40d505b3          	sub	a1,a0,a3
800046a8:	00d50c63          	beq	a0,a3,800046c0 <__udivdi3+0x68>
800046ac:	00b317b3          	sll	a5,t1,a1
800046b0:	00d8d6b3          	srl	a3,a7,a3
800046b4:	00b61733          	sll	a4,a2,a1
800046b8:	00f6e7b3          	or	a5,a3,a5
800046bc:	00b89833          	sll	a6,a7,a1
800046c0:	01075593          	srl	a1,a4,0x10
800046c4:	02b7d333          	divu	t1,a5,a1
800046c8:	01071613          	sll	a2,a4,0x10
800046cc:	01065613          	srl	a2,a2,0x10
800046d0:	02b7f7b3          	remu	a5,a5,a1
800046d4:	00030513          	mv	a0,t1
800046d8:	026608b3          	mul	a7,a2,t1
800046dc:	01079693          	sll	a3,a5,0x10
800046e0:	01085793          	srl	a5,a6,0x10
800046e4:	00d7e7b3          	or	a5,a5,a3
800046e8:	0117fe63          	bgeu	a5,a7,80004704 <__udivdi3+0xac>
800046ec:	00f707b3          	add	a5,a4,a5
800046f0:	fff30513          	add	a0,t1,-1
800046f4:	00e7e863          	bltu	a5,a4,80004704 <__udivdi3+0xac>
800046f8:	0117f663          	bgeu	a5,a7,80004704 <__udivdi3+0xac>
800046fc:	ffe30513          	add	a0,t1,-2
80004700:	00e787b3          	add	a5,a5,a4
80004704:	411787b3          	sub	a5,a5,a7
80004708:	02b7d8b3          	divu	a7,a5,a1
8000470c:	01081813          	sll	a6,a6,0x10
80004710:	01085813          	srl	a6,a6,0x10
80004714:	02b7f7b3          	remu	a5,a5,a1
80004718:	031606b3          	mul	a3,a2,a7
8000471c:	01079793          	sll	a5,a5,0x10
80004720:	00f86833          	or	a6,a6,a5
80004724:	00088793          	mv	a5,a7
80004728:	00d87c63          	bgeu	a6,a3,80004740 <__udivdi3+0xe8>
8000472c:	01070833          	add	a6,a4,a6
80004730:	fff88793          	add	a5,a7,-1
80004734:	00e86663          	bltu	a6,a4,80004740 <__udivdi3+0xe8>
80004738:	00d87463          	bgeu	a6,a3,80004740 <__udivdi3+0xe8>
8000473c:	ffe88793          	add	a5,a7,-2
80004740:	01051513          	sll	a0,a0,0x10
80004744:	00f56533          	or	a0,a0,a5
80004748:	00000593          	li	a1,0
8000474c:	00008067          	ret
80004750:	01000537          	lui	a0,0x1000
80004754:	01000693          	li	a3,16
80004758:	f2a66ce3          	bltu	a2,a0,80004690 <__udivdi3+0x38>
8000475c:	01800693          	li	a3,24
80004760:	f31ff06f          	j	80004690 <__udivdi3+0x38>
80004764:	00000693          	li	a3,0
80004768:	00060c63          	beqz	a2,80004780 <__udivdi3+0x128>
8000476c:	000107b7          	lui	a5,0x10
80004770:	0cf67063          	bgeu	a2,a5,80004830 <__udivdi3+0x1d8>
80004774:	10063693          	sltiu	a3,a2,256
80004778:	0016c693          	xor	a3,a3,1
8000477c:	00369693          	sll	a3,a3,0x3
80004780:	00d657b3          	srl	a5,a2,a3
80004784:	00f585b3          	add	a1,a1,a5
80004788:	0005c783          	lbu	a5,0(a1)
8000478c:	00d787b3          	add	a5,a5,a3
80004790:	02000693          	li	a3,32
80004794:	40f685b3          	sub	a1,a3,a5
80004798:	0af69663          	bne	a3,a5,80004844 <__udivdi3+0x1ec>
8000479c:	40c307b3          	sub	a5,t1,a2
800047a0:	00100593          	li	a1,1
800047a4:	01075893          	srl	a7,a4,0x10
800047a8:	0317de33          	divu	t3,a5,a7
800047ac:	01071613          	sll	a2,a4,0x10
800047b0:	01065613          	srl	a2,a2,0x10
800047b4:	01085693          	srl	a3,a6,0x10
800047b8:	0317f7b3          	remu	a5,a5,a7
800047bc:	000e0513          	mv	a0,t3
800047c0:	03c60333          	mul	t1,a2,t3
800047c4:	01079793          	sll	a5,a5,0x10
800047c8:	00f6e7b3          	or	a5,a3,a5
800047cc:	0067fe63          	bgeu	a5,t1,800047e8 <__udivdi3+0x190>
800047d0:	00f707b3          	add	a5,a4,a5
800047d4:	fffe0513          	add	a0,t3,-1
800047d8:	00e7e863          	bltu	a5,a4,800047e8 <__udivdi3+0x190>
800047dc:	0067f663          	bgeu	a5,t1,800047e8 <__udivdi3+0x190>
800047e0:	ffee0513          	add	a0,t3,-2
800047e4:	00e787b3          	add	a5,a5,a4
800047e8:	406787b3          	sub	a5,a5,t1
800047ec:	0317d333          	divu	t1,a5,a7
800047f0:	01081813          	sll	a6,a6,0x10
800047f4:	01085813          	srl	a6,a6,0x10
800047f8:	0317f7b3          	remu	a5,a5,a7
800047fc:	026606b3          	mul	a3,a2,t1
80004800:	01079793          	sll	a5,a5,0x10
80004804:	00f86833          	or	a6,a6,a5
80004808:	00030793          	mv	a5,t1
8000480c:	00d87c63          	bgeu	a6,a3,80004824 <__udivdi3+0x1cc>
80004810:	01070833          	add	a6,a4,a6
80004814:	fff30793          	add	a5,t1,-1
80004818:	00e86663          	bltu	a6,a4,80004824 <__udivdi3+0x1cc>
8000481c:	00d87463          	bgeu	a6,a3,80004824 <__udivdi3+0x1cc>
80004820:	ffe30793          	add	a5,t1,-2
80004824:	01051513          	sll	a0,a0,0x10
80004828:	00f56533          	or	a0,a0,a5
8000482c:	00008067          	ret
80004830:	010007b7          	lui	a5,0x1000
80004834:	01000693          	li	a3,16
80004838:	f4f664e3          	bltu	a2,a5,80004780 <__udivdi3+0x128>
8000483c:	01800693          	li	a3,24
80004840:	f41ff06f          	j	80004780 <__udivdi3+0x128>
80004844:	00b61733          	sll	a4,a2,a1
80004848:	00f356b3          	srl	a3,t1,a5
8000484c:	01075513          	srl	a0,a4,0x10
80004850:	00b31333          	sll	t1,t1,a1
80004854:	00f8d7b3          	srl	a5,a7,a5
80004858:	0067e7b3          	or	a5,a5,t1
8000485c:	02a6d333          	divu	t1,a3,a0
80004860:	01071613          	sll	a2,a4,0x10
80004864:	01065613          	srl	a2,a2,0x10
80004868:	00b89833          	sll	a6,a7,a1
8000486c:	02a6f6b3          	remu	a3,a3,a0
80004870:	026608b3          	mul	a7,a2,t1
80004874:	01069593          	sll	a1,a3,0x10
80004878:	0107d693          	srl	a3,a5,0x10
8000487c:	00b6e6b3          	or	a3,a3,a1
80004880:	00030593          	mv	a1,t1
80004884:	0116fe63          	bgeu	a3,a7,800048a0 <__udivdi3+0x248>
80004888:	00d706b3          	add	a3,a4,a3
8000488c:	fff30593          	add	a1,t1,-1
80004890:	00e6e863          	bltu	a3,a4,800048a0 <__udivdi3+0x248>
80004894:	0116f663          	bgeu	a3,a7,800048a0 <__udivdi3+0x248>
80004898:	ffe30593          	add	a1,t1,-2
8000489c:	00e686b3          	add	a3,a3,a4
800048a0:	411686b3          	sub	a3,a3,a7
800048a4:	02a6d8b3          	divu	a7,a3,a0
800048a8:	01079793          	sll	a5,a5,0x10
800048ac:	0107d793          	srl	a5,a5,0x10
800048b0:	02a6f6b3          	remu	a3,a3,a0
800048b4:	03160633          	mul	a2,a2,a7
800048b8:	01069693          	sll	a3,a3,0x10
800048bc:	00d7e7b3          	or	a5,a5,a3
800048c0:	00088693          	mv	a3,a7
800048c4:	00c7fe63          	bgeu	a5,a2,800048e0 <__udivdi3+0x288>
800048c8:	00f707b3          	add	a5,a4,a5
800048cc:	fff88693          	add	a3,a7,-1
800048d0:	00e7e863          	bltu	a5,a4,800048e0 <__udivdi3+0x288>
800048d4:	00c7f663          	bgeu	a5,a2,800048e0 <__udivdi3+0x288>
800048d8:	ffe88693          	add	a3,a7,-2
800048dc:	00e787b3          	add	a5,a5,a4
800048e0:	01059593          	sll	a1,a1,0x10
800048e4:	40c787b3          	sub	a5,a5,a2
800048e8:	00d5e5b3          	or	a1,a1,a3
800048ec:	eb9ff06f          	j	800047a4 <__udivdi3+0x14c>
800048f0:	18d5e663          	bltu	a1,a3,80004a7c <__udivdi3+0x424>
800048f4:	000107b7          	lui	a5,0x10
800048f8:	04f6f463          	bgeu	a3,a5,80004940 <__udivdi3+0x2e8>
800048fc:	1006b713          	sltiu	a4,a3,256
80004900:	00174713          	xor	a4,a4,1
80004904:	00371713          	sll	a4,a4,0x3
80004908:	800127b7          	lui	a5,0x80012
8000490c:	00e6d5b3          	srl	a1,a3,a4
80004910:	fe078793          	add	a5,a5,-32 # 80011fe0 <__clz_tab>
80004914:	00b787b3          	add	a5,a5,a1
80004918:	0007c783          	lbu	a5,0(a5)
8000491c:	00e787b3          	add	a5,a5,a4
80004920:	02000713          	li	a4,32
80004924:	40f705b3          	sub	a1,a4,a5
80004928:	02f71663          	bne	a4,a5,80004954 <__udivdi3+0x2fc>
8000492c:	00100513          	li	a0,1
80004930:	e066eee3          	bltu	a3,t1,8000474c <__udivdi3+0xf4>
80004934:	00c8b533          	sltu	a0,a7,a2
80004938:	00154513          	xor	a0,a0,1
8000493c:	00008067          	ret
80004940:	010007b7          	lui	a5,0x1000
80004944:	01000713          	li	a4,16
80004948:	fcf6e0e3          	bltu	a3,a5,80004908 <__udivdi3+0x2b0>
8000494c:	01800713          	li	a4,24
80004950:	fb9ff06f          	j	80004908 <__udivdi3+0x2b0>
80004954:	00f65733          	srl	a4,a2,a5
80004958:	00b696b3          	sll	a3,a3,a1
8000495c:	00d766b3          	or	a3,a4,a3
80004960:	00f35733          	srl	a4,t1,a5
80004964:	00b31333          	sll	t1,t1,a1
80004968:	00f8d7b3          	srl	a5,a7,a5
8000496c:	0067e7b3          	or	a5,a5,t1
80004970:	0106d313          	srl	t1,a3,0x10
80004974:	02675eb3          	divu	t4,a4,t1
80004978:	01069813          	sll	a6,a3,0x10
8000497c:	01085813          	srl	a6,a6,0x10
80004980:	00b61633          	sll	a2,a2,a1
80004984:	02677733          	remu	a4,a4,t1
80004988:	03d80e33          	mul	t3,a6,t4
8000498c:	01071513          	sll	a0,a4,0x10
80004990:	0107d713          	srl	a4,a5,0x10
80004994:	00a76733          	or	a4,a4,a0
80004998:	000e8513          	mv	a0,t4
8000499c:	01c77e63          	bgeu	a4,t3,800049b8 <__udivdi3+0x360>
800049a0:	00e68733          	add	a4,a3,a4
800049a4:	fffe8513          	add	a0,t4,-1
800049a8:	00d76863          	bltu	a4,a3,800049b8 <__udivdi3+0x360>
800049ac:	01c77663          	bgeu	a4,t3,800049b8 <__udivdi3+0x360>
800049b0:	ffee8513          	add	a0,t4,-2
800049b4:	00d70733          	add	a4,a4,a3
800049b8:	41c70733          	sub	a4,a4,t3
800049bc:	02675e33          	divu	t3,a4,t1
800049c0:	01079793          	sll	a5,a5,0x10
800049c4:	0107d793          	srl	a5,a5,0x10
800049c8:	02677733          	remu	a4,a4,t1
800049cc:	03c80833          	mul	a6,a6,t3
800049d0:	01071713          	sll	a4,a4,0x10
800049d4:	00e7e7b3          	or	a5,a5,a4
800049d8:	000e0713          	mv	a4,t3
800049dc:	0107fe63          	bgeu	a5,a6,800049f8 <__udivdi3+0x3a0>
800049e0:	00f687b3          	add	a5,a3,a5
800049e4:	fffe0713          	add	a4,t3,-1
800049e8:	00d7e863          	bltu	a5,a3,800049f8 <__udivdi3+0x3a0>
800049ec:	0107f663          	bgeu	a5,a6,800049f8 <__udivdi3+0x3a0>
800049f0:	ffee0713          	add	a4,t3,-2
800049f4:	00d787b3          	add	a5,a5,a3
800049f8:	01051513          	sll	a0,a0,0x10
800049fc:	00010e37          	lui	t3,0x10
80004a00:	00e56533          	or	a0,a0,a4
80004a04:	fffe0693          	add	a3,t3,-1 # ffff <__stack_size+0xf7ff>
80004a08:	00d57733          	and	a4,a0,a3
80004a0c:	410787b3          	sub	a5,a5,a6
80004a10:	00d676b3          	and	a3,a2,a3
80004a14:	01055813          	srl	a6,a0,0x10
80004a18:	01065613          	srl	a2,a2,0x10
80004a1c:	02d70333          	mul	t1,a4,a3
80004a20:	02d806b3          	mul	a3,a6,a3
80004a24:	02c70733          	mul	a4,a4,a2
80004a28:	02c80833          	mul	a6,a6,a2
80004a2c:	00d70633          	add	a2,a4,a3
80004a30:	01035713          	srl	a4,t1,0x10
80004a34:	00c70733          	add	a4,a4,a2
80004a38:	00d77463          	bgeu	a4,a3,80004a40 <__udivdi3+0x3e8>
80004a3c:	01c80833          	add	a6,a6,t3
80004a40:	01075693          	srl	a3,a4,0x10
80004a44:	010686b3          	add	a3,a3,a6
80004a48:	02d7e663          	bltu	a5,a3,80004a74 <__udivdi3+0x41c>
80004a4c:	ced79ee3          	bne	a5,a3,80004748 <__udivdi3+0xf0>
80004a50:	000107b7          	lui	a5,0x10
80004a54:	fff78793          	add	a5,a5,-1 # ffff <__stack_size+0xf7ff>
80004a58:	00f77733          	and	a4,a4,a5
80004a5c:	01071713          	sll	a4,a4,0x10
80004a60:	00f37333          	and	t1,t1,a5
80004a64:	00b898b3          	sll	a7,a7,a1
80004a68:	00670733          	add	a4,a4,t1
80004a6c:	00000593          	li	a1,0
80004a70:	cce8fee3          	bgeu	a7,a4,8000474c <__udivdi3+0xf4>
80004a74:	fff50513          	add	a0,a0,-1 # ffffff <__heap_size+0xdfffff>
80004a78:	cd1ff06f          	j	80004748 <__udivdi3+0xf0>
80004a7c:	00000593          	li	a1,0
80004a80:	00000513          	li	a0,0
80004a84:	00008067          	ret

80004a88 <__adddf3>:
80004a88:	00100737          	lui	a4,0x100
80004a8c:	fff70713          	add	a4,a4,-1 # fffff <__stack_size+0xff7ff>
80004a90:	fe010113          	add	sp,sp,-32
80004a94:	00b777b3          	and	a5,a4,a1
80004a98:	0146d893          	srl	a7,a3,0x14
80004a9c:	00d77733          	and	a4,a4,a3
80004aa0:	00812c23          	sw	s0,24(sp)
80004aa4:	00912a23          	sw	s1,20(sp)
80004aa8:	0145d413          	srl	s0,a1,0x14
80004aac:	01f5d493          	srl	s1,a1,0x1f
80004ab0:	00379593          	sll	a1,a5,0x3
80004ab4:	01d55793          	srl	a5,a0,0x1d
80004ab8:	7ff47413          	and	s0,s0,2047
80004abc:	00b7e7b3          	or	a5,a5,a1
80004ac0:	7ff8f893          	and	a7,a7,2047
80004ac4:	00371593          	sll	a1,a4,0x3
80004ac8:	00112e23          	sw	ra,28(sp)
80004acc:	01d65713          	srl	a4,a2,0x1d
80004ad0:	01212823          	sw	s2,16(sp)
80004ad4:	01312623          	sw	s3,12(sp)
80004ad8:	01f6d693          	srl	a3,a3,0x1f
80004adc:	00b76733          	or	a4,a4,a1
80004ae0:	00351513          	sll	a0,a0,0x3
80004ae4:	00361613          	sll	a2,a2,0x3
80004ae8:	411405b3          	sub	a1,s0,a7
80004aec:	30d49a63          	bne	s1,a3,80004e00 <__adddf3+0x378>
80004af0:	16b05463          	blez	a1,80004c58 <__adddf3+0x1d0>
80004af4:	0a089063          	bnez	a7,80004b94 <__adddf3+0x10c>
80004af8:	00c766b3          	or	a3,a4,a2
80004afc:	70068863          	beqz	a3,8000520c <__adddf3+0x784>
80004b00:	fff58693          	add	a3,a1,-1
80004b04:	08069063          	bnez	a3,80004b84 <__adddf3+0xfc>
80004b08:	00c50633          	add	a2,a0,a2
80004b0c:	00a636b3          	sltu	a3,a2,a0
80004b10:	00e78733          	add	a4,a5,a4
80004b14:	00d707b3          	add	a5,a4,a3
80004b18:	00800737          	lui	a4,0x800
80004b1c:	00e7f733          	and	a4,a5,a4
80004b20:	00060513          	mv	a0,a2
80004b24:	2a071863          	bnez	a4,80004dd4 <__adddf3+0x34c>
80004b28:	00100413          	li	s0,1
80004b2c:	00757713          	and	a4,a0,7
80004b30:	02070063          	beqz	a4,80004b50 <__adddf3+0xc8>
80004b34:	00f57713          	and	a4,a0,15
80004b38:	00400693          	li	a3,4
80004b3c:	00d70a63          	beq	a4,a3,80004b50 <__adddf3+0xc8>
80004b40:	00450713          	add	a4,a0,4
80004b44:	00a736b3          	sltu	a3,a4,a0
80004b48:	00d787b3          	add	a5,a5,a3
80004b4c:	00070513          	mv	a0,a4
80004b50:	008005b7          	lui	a1,0x800
80004b54:	00b7f5b3          	and	a1,a5,a1
80004b58:	6c058c63          	beqz	a1,80005230 <__adddf3+0x7a8>
80004b5c:	00140413          	add	s0,s0,1
80004b60:	7ff00713          	li	a4,2047
80004b64:	0ae40263          	beq	s0,a4,80004c08 <__adddf3+0x180>
80004b68:	ff800737          	lui	a4,0xff800
80004b6c:	fff70713          	add	a4,a4,-1 # ff7fffff <__freertos_irq_stack_top+0x7f5ed6cf>
80004b70:	00e7f7b3          	and	a5,a5,a4
80004b74:	00355513          	srl	a0,a0,0x3
80004b78:	01d79593          	sll	a1,a5,0x1d
80004b7c:	00a5e5b3          	or	a1,a1,a0
80004b80:	6240006f          	j	800051a4 <__adddf3+0x71c>
80004b84:	7ff00813          	li	a6,2047
80004b88:	09059463          	bne	a1,a6,80004c10 <__adddf3+0x188>
80004b8c:	7ff00413          	li	s0,2047
80004b90:	f9dff06f          	j	80004b2c <__adddf3+0xa4>
80004b94:	7ff00693          	li	a3,2047
80004b98:	f8d40ae3          	beq	s0,a3,80004b2c <__adddf3+0xa4>
80004b9c:	03800693          	li	a3,56
80004ba0:	06b6cc63          	blt	a3,a1,80004c18 <__adddf3+0x190>
80004ba4:	008006b7          	lui	a3,0x800
80004ba8:	00d76733          	or	a4,a4,a3
80004bac:	00058693          	mv	a3,a1
80004bb0:	01f00593          	li	a1,31
80004bb4:	06d5c863          	blt	a1,a3,80004c24 <__adddf3+0x19c>
80004bb8:	02000813          	li	a6,32
80004bbc:	40d80833          	sub	a6,a6,a3
80004bc0:	00d658b3          	srl	a7,a2,a3
80004bc4:	010715b3          	sll	a1,a4,a6
80004bc8:	01061833          	sll	a6,a2,a6
80004bcc:	0115e5b3          	or	a1,a1,a7
80004bd0:	01003833          	snez	a6,a6
80004bd4:	0105e633          	or	a2,a1,a6
80004bd8:	00d756b3          	srl	a3,a4,a3
80004bdc:	00a60533          	add	a0,a2,a0
80004be0:	00f686b3          	add	a3,a3,a5
80004be4:	00c53633          	sltu	a2,a0,a2
80004be8:	00c687b3          	add	a5,a3,a2
80004bec:	00800737          	lui	a4,0x800
80004bf0:	00e7f733          	and	a4,a5,a4
80004bf4:	f2070ce3          	beqz	a4,80004b2c <__adddf3+0xa4>
80004bf8:	00140413          	add	s0,s0,1
80004bfc:	7ff00713          	li	a4,2047
80004c00:	1ce41c63          	bne	s0,a4,80004dd8 <__adddf3+0x350>
80004c04:	7ff00413          	li	s0,2047
80004c08:	00000793          	li	a5,0
80004c0c:	1900006f          	j	80004d9c <__adddf3+0x314>
80004c10:	03800593          	li	a1,56
80004c14:	f8d5dee3          	bge	a1,a3,80004bb0 <__adddf3+0x128>
80004c18:	00000693          	li	a3,0
80004c1c:	00100613          	li	a2,1
80004c20:	fbdff06f          	j	80004bdc <__adddf3+0x154>
80004c24:	fe068593          	add	a1,a3,-32 # 7fffe0 <__heap_size+0x5fffe0>
80004c28:	02000893          	li	a7,32
80004c2c:	00b755b3          	srl	a1,a4,a1
80004c30:	00000813          	li	a6,0
80004c34:	01168863          	beq	a3,a7,80004c44 <__adddf3+0x1bc>
80004c38:	04000813          	li	a6,64
80004c3c:	40d80833          	sub	a6,a6,a3
80004c40:	01071833          	sll	a6,a4,a6
80004c44:	00c86833          	or	a6,a6,a2
80004c48:	01003833          	snez	a6,a6
80004c4c:	0105e633          	or	a2,a1,a6
80004c50:	00000693          	li	a3,0
80004c54:	f89ff06f          	j	80004bdc <__adddf3+0x154>
80004c58:	0c058e63          	beqz	a1,80004d34 <__adddf3+0x2ac>
80004c5c:	408885b3          	sub	a1,a7,s0
80004c60:	02041463          	bnez	s0,80004c88 <__adddf3+0x200>
80004c64:	00a7e6b3          	or	a3,a5,a0
80004c68:	58068e63          	beqz	a3,80005204 <__adddf3+0x77c>
80004c6c:	fff58693          	add	a3,a1,-1 # 7fffff <__heap_size+0x5fffff>
80004c70:	e8068ce3          	beqz	a3,80004b08 <__adddf3+0x80>
80004c74:	7ff00813          	li	a6,2047
80004c78:	07059a63          	bne	a1,a6,80004cec <__adddf3+0x264>
80004c7c:	00070793          	mv	a5,a4
80004c80:	00060513          	mv	a0,a2
80004c84:	f09ff06f          	j	80004b8c <__adddf3+0x104>
80004c88:	7ff00693          	li	a3,2047
80004c8c:	fed888e3          	beq	a7,a3,80004c7c <__adddf3+0x1f4>
80004c90:	03800693          	li	a3,56
80004c94:	06b6c063          	blt	a3,a1,80004cf4 <__adddf3+0x26c>
80004c98:	008006b7          	lui	a3,0x800
80004c9c:	00d7e7b3          	or	a5,a5,a3
80004ca0:	00058693          	mv	a3,a1
80004ca4:	01f00593          	li	a1,31
80004ca8:	04d5cc63          	blt	a1,a3,80004d00 <__adddf3+0x278>
80004cac:	02000813          	li	a6,32
80004cb0:	40d80833          	sub	a6,a6,a3
80004cb4:	010795b3          	sll	a1,a5,a6
80004cb8:	00d55333          	srl	t1,a0,a3
80004cbc:	01051833          	sll	a6,a0,a6
80004cc0:	0065e5b3          	or	a1,a1,t1
80004cc4:	01003833          	snez	a6,a6
80004cc8:	0105e5b3          	or	a1,a1,a6
80004ccc:	00d7d6b3          	srl	a3,a5,a3
80004cd0:	00c58633          	add	a2,a1,a2
80004cd4:	00e686b3          	add	a3,a3,a4
80004cd8:	00b635b3          	sltu	a1,a2,a1
80004cdc:	00060513          	mv	a0,a2
80004ce0:	00b687b3          	add	a5,a3,a1
80004ce4:	00088413          	mv	s0,a7
80004ce8:	f05ff06f          	j	80004bec <__adddf3+0x164>
80004cec:	03800593          	li	a1,56
80004cf0:	fad5dae3          	bge	a1,a3,80004ca4 <__adddf3+0x21c>
80004cf4:	00000693          	li	a3,0
80004cf8:	00100593          	li	a1,1
80004cfc:	fd5ff06f          	j	80004cd0 <__adddf3+0x248>
80004d00:	fe068593          	add	a1,a3,-32 # 7fffe0 <__heap_size+0x5fffe0>
80004d04:	02000313          	li	t1,32
80004d08:	00b7d5b3          	srl	a1,a5,a1
80004d0c:	00000813          	li	a6,0
80004d10:	00668863          	beq	a3,t1,80004d20 <__adddf3+0x298>
80004d14:	04000813          	li	a6,64
80004d18:	40d80833          	sub	a6,a6,a3
80004d1c:	01079833          	sll	a6,a5,a6
80004d20:	00a86833          	or	a6,a6,a0
80004d24:	01003833          	snez	a6,a6
80004d28:	0105e5b3          	or	a1,a1,a6
80004d2c:	00000693          	li	a3,0
80004d30:	fa1ff06f          	j	80004cd0 <__adddf3+0x248>
80004d34:	00140693          	add	a3,s0,1
80004d38:	7fe6f593          	and	a1,a3,2046
80004d3c:	06059463          	bnez	a1,80004da4 <__adddf3+0x31c>
80004d40:	00a7e6b3          	or	a3,a5,a0
80004d44:	04041063          	bnez	s0,80004d84 <__adddf3+0x2fc>
80004d48:	4c068663          	beqz	a3,80005214 <__adddf3+0x78c>
80004d4c:	00c766b3          	or	a3,a4,a2
80004d50:	dc068ee3          	beqz	a3,80004b2c <__adddf3+0xa4>
80004d54:	00c50633          	add	a2,a0,a2
80004d58:	00a636b3          	sltu	a3,a2,a0
80004d5c:	00e78733          	add	a4,a5,a4
80004d60:	00d707b3          	add	a5,a4,a3
80004d64:	00800737          	lui	a4,0x800
80004d68:	00e7f733          	and	a4,a5,a4
80004d6c:	00060513          	mv	a0,a2
80004d70:	da070ee3          	beqz	a4,80004b2c <__adddf3+0xa4>
80004d74:	ff800737          	lui	a4,0xff800
80004d78:	fff70713          	add	a4,a4,-1 # ff7fffff <__freertos_irq_stack_top+0x7f5ed6cf>
80004d7c:	00e7f7b3          	and	a5,a5,a4
80004d80:	da9ff06f          	j	80004b28 <__adddf3+0xa0>
80004d84:	ee068ce3          	beqz	a3,80004c7c <__adddf3+0x1f4>
80004d88:	00c76633          	or	a2,a4,a2
80004d8c:	e00600e3          	beqz	a2,80004b8c <__adddf3+0x104>
80004d90:	00000493          	li	s1,0
80004d94:	7ff00413          	li	s0,2047
80004d98:	000807b7          	lui	a5,0x80
80004d9c:	00000593          	li	a1,0
80004da0:	4080006f          	j	800051a8 <__adddf3+0x720>
80004da4:	7ff00593          	li	a1,2047
80004da8:	e4b68ee3          	beq	a3,a1,80004c04 <__adddf3+0x17c>
80004dac:	00c50633          	add	a2,a0,a2
80004db0:	00a63533          	sltu	a0,a2,a0
80004db4:	00e78733          	add	a4,a5,a4
80004db8:	00a70733          	add	a4,a4,a0
80004dbc:	01f71513          	sll	a0,a4,0x1f
80004dc0:	00165613          	srl	a2,a2,0x1
80004dc4:	00c56533          	or	a0,a0,a2
80004dc8:	00175793          	srl	a5,a4,0x1
80004dcc:	00068413          	mv	s0,a3
80004dd0:	d5dff06f          	j	80004b2c <__adddf3+0xa4>
80004dd4:	00200413          	li	s0,2
80004dd8:	ff800737          	lui	a4,0xff800
80004ddc:	fff70713          	add	a4,a4,-1 # ff7fffff <__freertos_irq_stack_top+0x7f5ed6cf>
80004de0:	00e7f7b3          	and	a5,a5,a4
80004de4:	00155713          	srl	a4,a0,0x1
80004de8:	00157513          	and	a0,a0,1
80004dec:	00a76733          	or	a4,a4,a0
80004df0:	01f79513          	sll	a0,a5,0x1f
80004df4:	00e56533          	or	a0,a0,a4
80004df8:	0017d793          	srl	a5,a5,0x1
80004dfc:	d31ff06f          	j	80004b2c <__adddf3+0xa4>
80004e00:	0eb05e63          	blez	a1,80004efc <__adddf3+0x474>
80004e04:	04089663          	bnez	a7,80004e50 <__adddf3+0x3c8>
80004e08:	00c766b3          	or	a3,a4,a2
80004e0c:	40068063          	beqz	a3,8000520c <__adddf3+0x784>
80004e10:	fff58693          	add	a3,a1,-1
80004e14:	02069063          	bnez	a3,80004e34 <__adddf3+0x3ac>
80004e18:	40c50633          	sub	a2,a0,a2
80004e1c:	00c536b3          	sltu	a3,a0,a2
80004e20:	40e78733          	sub	a4,a5,a4
80004e24:	00060513          	mv	a0,a2
80004e28:	40d707b3          	sub	a5,a4,a3
80004e2c:	00100413          	li	s0,1
80004e30:	07c0006f          	j	80004eac <__adddf3+0x424>
80004e34:	7ff00813          	li	a6,2047
80004e38:	d5058ae3          	beq	a1,a6,80004b8c <__adddf3+0x104>
80004e3c:	03800593          	li	a1,56
80004e40:	02d5d663          	bge	a1,a3,80004e6c <__adddf3+0x3e4>
80004e44:	00000693          	li	a3,0
80004e48:	00100613          	li	a2,1
80004e4c:	04c0006f          	j	80004e98 <__adddf3+0x410>
80004e50:	7ff00693          	li	a3,2047
80004e54:	ccd40ce3          	beq	s0,a3,80004b2c <__adddf3+0xa4>
80004e58:	03800693          	li	a3,56
80004e5c:	feb6c4e3          	blt	a3,a1,80004e44 <__adddf3+0x3bc>
80004e60:	008006b7          	lui	a3,0x800
80004e64:	00d76733          	or	a4,a4,a3
80004e68:	00058693          	mv	a3,a1
80004e6c:	01f00593          	li	a1,31
80004e70:	04d5cc63          	blt	a1,a3,80004ec8 <__adddf3+0x440>
80004e74:	02000813          	li	a6,32
80004e78:	40d80833          	sub	a6,a6,a3
80004e7c:	00d658b3          	srl	a7,a2,a3
80004e80:	010715b3          	sll	a1,a4,a6
80004e84:	01061833          	sll	a6,a2,a6
80004e88:	0115e5b3          	or	a1,a1,a7
80004e8c:	01003833          	snez	a6,a6
80004e90:	0105e633          	or	a2,a1,a6
80004e94:	00d756b3          	srl	a3,a4,a3
80004e98:	40c50633          	sub	a2,a0,a2
80004e9c:	00c53733          	sltu	a4,a0,a2
80004ea0:	40d786b3          	sub	a3,a5,a3
80004ea4:	00060513          	mv	a0,a2
80004ea8:	40e687b3          	sub	a5,a3,a4
80004eac:	00800737          	lui	a4,0x800
80004eb0:	00e7f6b3          	and	a3,a5,a4
80004eb4:	c6068ce3          	beqz	a3,80004b2c <__adddf3+0xa4>
80004eb8:	fff70713          	add	a4,a4,-1 # 7fffff <__heap_size+0x5fffff>
80004ebc:	00e7f9b3          	and	s3,a5,a4
80004ec0:	00050913          	mv	s2,a0
80004ec4:	1fc0006f          	j	800050c0 <__adddf3+0x638>
80004ec8:	fe068593          	add	a1,a3,-32 # 7fffe0 <__heap_size+0x5fffe0>
80004ecc:	02000893          	li	a7,32
80004ed0:	00b755b3          	srl	a1,a4,a1
80004ed4:	00000813          	li	a6,0
80004ed8:	01168863          	beq	a3,a7,80004ee8 <__adddf3+0x460>
80004edc:	04000813          	li	a6,64
80004ee0:	40d80833          	sub	a6,a6,a3
80004ee4:	01071833          	sll	a6,a4,a6
80004ee8:	00c86833          	or	a6,a6,a2
80004eec:	01003833          	snez	a6,a6
80004ef0:	0105e633          	or	a2,a1,a6
80004ef4:	00000693          	li	a3,0
80004ef8:	fa1ff06f          	j	80004e98 <__adddf3+0x410>
80004efc:	0e058c63          	beqz	a1,80004ff4 <__adddf3+0x56c>
80004f00:	40888833          	sub	a6,a7,s0
80004f04:	04041263          	bnez	s0,80004f48 <__adddf3+0x4c0>
80004f08:	00a7e5b3          	or	a1,a5,a0
80004f0c:	30058a63          	beqz	a1,80005220 <__adddf3+0x798>
80004f10:	fff80593          	add	a1,a6,-1
80004f14:	00059e63          	bnez	a1,80004f30 <__adddf3+0x4a8>
80004f18:	40a60533          	sub	a0,a2,a0
80004f1c:	40f70733          	sub	a4,a4,a5
80004f20:	00a63633          	sltu	a2,a2,a0
80004f24:	40c707b3          	sub	a5,a4,a2
80004f28:	00068493          	mv	s1,a3
80004f2c:	f01ff06f          	j	80004e2c <__adddf3+0x3a4>
80004f30:	7ff00313          	li	t1,2047
80004f34:	06681c63          	bne	a6,t1,80004fac <__adddf3+0x524>
80004f38:	00070793          	mv	a5,a4
80004f3c:	00060513          	mv	a0,a2
80004f40:	7ff00413          	li	s0,2047
80004f44:	0d80006f          	j	8000501c <__adddf3+0x594>
80004f48:	7ff00593          	li	a1,2047
80004f4c:	feb886e3          	beq	a7,a1,80004f38 <__adddf3+0x4b0>
80004f50:	03800593          	li	a1,56
80004f54:	0705c063          	blt	a1,a6,80004fb4 <__adddf3+0x52c>
80004f58:	008005b7          	lui	a1,0x800
80004f5c:	00b7e7b3          	or	a5,a5,a1
80004f60:	00080593          	mv	a1,a6
80004f64:	01f00813          	li	a6,31
80004f68:	04b84c63          	blt	a6,a1,80004fc0 <__adddf3+0x538>
80004f6c:	02000313          	li	t1,32
80004f70:	40b30333          	sub	t1,t1,a1
80004f74:	00b55e33          	srl	t3,a0,a1
80004f78:	00679833          	sll	a6,a5,t1
80004f7c:	00651333          	sll	t1,a0,t1
80004f80:	01c86833          	or	a6,a6,t3
80004f84:	00603333          	snez	t1,t1
80004f88:	00686533          	or	a0,a6,t1
80004f8c:	00b7d5b3          	srl	a1,a5,a1
80004f90:	40a60533          	sub	a0,a2,a0
80004f94:	40b705b3          	sub	a1,a4,a1
80004f98:	00a63633          	sltu	a2,a2,a0
80004f9c:	40c587b3          	sub	a5,a1,a2
80004fa0:	00088413          	mv	s0,a7
80004fa4:	00068493          	mv	s1,a3
80004fa8:	f05ff06f          	j	80004eac <__adddf3+0x424>
80004fac:	03800813          	li	a6,56
80004fb0:	fab85ae3          	bge	a6,a1,80004f64 <__adddf3+0x4dc>
80004fb4:	00000593          	li	a1,0
80004fb8:	00100513          	li	a0,1
80004fbc:	fd5ff06f          	j	80004f90 <__adddf3+0x508>
80004fc0:	fe058813          	add	a6,a1,-32 # 7fffe0 <__heap_size+0x5fffe0>
80004fc4:	02000e13          	li	t3,32
80004fc8:	0107d833          	srl	a6,a5,a6
80004fcc:	00000313          	li	t1,0
80004fd0:	01c58863          	beq	a1,t3,80004fe0 <__adddf3+0x558>
80004fd4:	04000313          	li	t1,64
80004fd8:	40b30333          	sub	t1,t1,a1
80004fdc:	00679333          	sll	t1,a5,t1
80004fe0:	00a36333          	or	t1,t1,a0
80004fe4:	00603333          	snez	t1,t1
80004fe8:	00686533          	or	a0,a6,t1
80004fec:	00000593          	li	a1,0
80004ff0:	fa1ff06f          	j	80004f90 <__adddf3+0x508>
80004ff4:	00140593          	add	a1,s0,1
80004ff8:	7fe5f593          	and	a1,a1,2046
80004ffc:	08059863          	bnez	a1,8000508c <__adddf3+0x604>
80005000:	00a7e833          	or	a6,a5,a0
80005004:	00c765b3          	or	a1,a4,a2
80005008:	06041263          	bnez	s0,8000506c <__adddf3+0x5e4>
8000500c:	00081c63          	bnez	a6,80005024 <__adddf3+0x59c>
80005010:	10058e63          	beqz	a1,8000512c <__adddf3+0x6a4>
80005014:	00070793          	mv	a5,a4
80005018:	00060513          	mv	a0,a2
8000501c:	00068493          	mv	s1,a3
80005020:	b0dff06f          	j	80004b2c <__adddf3+0xa4>
80005024:	b00584e3          	beqz	a1,80004b2c <__adddf3+0xa4>
80005028:	40c508b3          	sub	a7,a0,a2
8000502c:	011535b3          	sltu	a1,a0,a7
80005030:	40e78833          	sub	a6,a5,a4
80005034:	40b80833          	sub	a6,a6,a1
80005038:	008005b7          	lui	a1,0x800
8000503c:	00b875b3          	and	a1,a6,a1
80005040:	00058c63          	beqz	a1,80005058 <__adddf3+0x5d0>
80005044:	40a60533          	sub	a0,a2,a0
80005048:	40f70733          	sub	a4,a4,a5
8000504c:	00a63633          	sltu	a2,a2,a0
80005050:	40c707b3          	sub	a5,a4,a2
80005054:	fc9ff06f          	j	8000501c <__adddf3+0x594>
80005058:	0108e5b3          	or	a1,a7,a6
8000505c:	0c058863          	beqz	a1,8000512c <__adddf3+0x6a4>
80005060:	00080793          	mv	a5,a6
80005064:	00088513          	mv	a0,a7
80005068:	ac5ff06f          	j	80004b2c <__adddf3+0xa4>
8000506c:	00081c63          	bnez	a6,80005084 <__adddf3+0x5fc>
80005070:	1e058663          	beqz	a1,8000525c <__adddf3+0x7d4>
80005074:	00070793          	mv	a5,a4
80005078:	00060513          	mv	a0,a2
8000507c:	00068493          	mv	s1,a3
80005080:	b0dff06f          	j	80004b8c <__adddf3+0x104>
80005084:	b00584e3          	beqz	a1,80004b8c <__adddf3+0x104>
80005088:	d09ff06f          	j	80004d90 <__adddf3+0x308>
8000508c:	40c505b3          	sub	a1,a0,a2
80005090:	00b53833          	sltu	a6,a0,a1
80005094:	40e789b3          	sub	s3,a5,a4
80005098:	410989b3          	sub	s3,s3,a6
8000509c:	00800837          	lui	a6,0x800
800050a0:	0109f833          	and	a6,s3,a6
800050a4:	00058913          	mv	s2,a1
800050a8:	06080c63          	beqz	a6,80005120 <__adddf3+0x698>
800050ac:	40a60933          	sub	s2,a2,a0
800050b0:	40f70733          	sub	a4,a4,a5
800050b4:	01263633          	sltu	a2,a2,s2
800050b8:	40c709b3          	sub	s3,a4,a2
800050bc:	00068493          	mv	s1,a3
800050c0:	06098a63          	beqz	s3,80005134 <__adddf3+0x6ac>
800050c4:	00098513          	mv	a0,s3
800050c8:	769020ef          	jal	80008030 <__clzsi2>
800050cc:	ff850793          	add	a5,a0,-8
800050d0:	02000693          	li	a3,32
800050d4:	40f686b3          	sub	a3,a3,a5
800050d8:	00f99733          	sll	a4,s3,a5
800050dc:	00d956b3          	srl	a3,s2,a3
800050e0:	00e6e6b3          	or	a3,a3,a4
800050e4:	00f919b3          	sll	s3,s2,a5
800050e8:	1087c263          	blt	a5,s0,800051ec <__adddf3+0x764>
800050ec:	408787b3          	sub	a5,a5,s0
800050f0:	00178793          	add	a5,a5,1 # 80001 <__stack_size+0x7f801>
800050f4:	02000713          	li	a4,32
800050f8:	40f70733          	sub	a4,a4,a5
800050fc:	00e69533          	sll	a0,a3,a4
80005100:	00f9d633          	srl	a2,s3,a5
80005104:	00e99733          	sll	a4,s3,a4
80005108:	00c56533          	or	a0,a0,a2
8000510c:	00e03733          	snez	a4,a4
80005110:	00e56533          	or	a0,a0,a4
80005114:	00f6d7b3          	srl	a5,a3,a5
80005118:	00000413          	li	s0,0
8000511c:	a11ff06f          	j	80004b2c <__adddf3+0xa4>
80005120:	0135e5b3          	or	a1,a1,s3
80005124:	f8059ee3          	bnez	a1,800050c0 <__adddf3+0x638>
80005128:	00000413          	li	s0,0
8000512c:	00000793          	li	a5,0
80005130:	1240006f          	j	80005254 <__adddf3+0x7cc>
80005134:	00090513          	mv	a0,s2
80005138:	6f9020ef          	jal	80008030 <__clzsi2>
8000513c:	01850793          	add	a5,a0,24
80005140:	01f00713          	li	a4,31
80005144:	f8f756e3          	bge	a4,a5,800050d0 <__adddf3+0x648>
80005148:	ff850513          	add	a0,a0,-8
8000514c:	00a916b3          	sll	a3,s2,a0
80005150:	0487c063          	blt	a5,s0,80005190 <__adddf3+0x708>
80005154:	40878533          	sub	a0,a5,s0
80005158:	00150793          	add	a5,a0,1
8000515c:	f8f75ce3          	bge	a4,a5,800050f4 <__adddf3+0x66c>
80005160:	fe150513          	add	a0,a0,-31
80005164:	02000613          	li	a2,32
80005168:	00a6d733          	srl	a4,a3,a0
8000516c:	00000513          	li	a0,0
80005170:	00c78863          	beq	a5,a2,80005180 <__adddf3+0x6f8>
80005174:	04000513          	li	a0,64
80005178:	40f50533          	sub	a0,a0,a5
8000517c:	00a69533          	sll	a0,a3,a0
80005180:	00a03533          	snez	a0,a0
80005184:	00e56533          	or	a0,a0,a4
80005188:	00000793          	li	a5,0
8000518c:	f8dff06f          	j	80005118 <__adddf3+0x690>
80005190:	40f40433          	sub	s0,s0,a5
80005194:	ff8007b7          	lui	a5,0xff800
80005198:	fff78793          	add	a5,a5,-1 # ff7fffff <__freertos_irq_stack_top+0x7f5ed6cf>
8000519c:	00f6f7b3          	and	a5,a3,a5
800051a0:	01d79593          	sll	a1,a5,0x1d
800051a4:	0037d793          	srl	a5,a5,0x3
800051a8:	01441413          	sll	s0,s0,0x14
800051ac:	7ff00737          	lui	a4,0x7ff00
800051b0:	00c79793          	sll	a5,a5,0xc
800051b4:	00c7d793          	srl	a5,a5,0xc
800051b8:	00e47433          	and	s0,s0,a4
800051bc:	00f46433          	or	s0,s0,a5
800051c0:	01f49493          	sll	s1,s1,0x1f
800051c4:	009467b3          	or	a5,s0,s1
800051c8:	01c12083          	lw	ra,28(sp)
800051cc:	01812403          	lw	s0,24(sp)
800051d0:	01412483          	lw	s1,20(sp)
800051d4:	01012903          	lw	s2,16(sp)
800051d8:	00c12983          	lw	s3,12(sp)
800051dc:	00058513          	mv	a0,a1
800051e0:	00078593          	mv	a1,a5
800051e4:	02010113          	add	sp,sp,32
800051e8:	00008067          	ret
800051ec:	40f40433          	sub	s0,s0,a5
800051f0:	ff8007b7          	lui	a5,0xff800
800051f4:	fff78793          	add	a5,a5,-1 # ff7fffff <__freertos_irq_stack_top+0x7f5ed6cf>
800051f8:	00f6f7b3          	and	a5,a3,a5
800051fc:	00098513          	mv	a0,s3
80005200:	92dff06f          	j	80004b2c <__adddf3+0xa4>
80005204:	00070793          	mv	a5,a4
80005208:	00060513          	mv	a0,a2
8000520c:	00058413          	mv	s0,a1
80005210:	91dff06f          	j	80004b2c <__adddf3+0xa4>
80005214:	00070793          	mv	a5,a4
80005218:	00060513          	mv	a0,a2
8000521c:	911ff06f          	j	80004b2c <__adddf3+0xa4>
80005220:	00070793          	mv	a5,a4
80005224:	00060513          	mv	a0,a2
80005228:	00080413          	mv	s0,a6
8000522c:	df1ff06f          	j	8000501c <__adddf3+0x594>
80005230:	01d79713          	sll	a4,a5,0x1d
80005234:	00355513          	srl	a0,a0,0x3
80005238:	7ff00693          	li	a3,2047
8000523c:	00a76733          	or	a4,a4,a0
80005240:	0037d793          	srl	a5,a5,0x3
80005244:	02d41463          	bne	s0,a3,8000526c <__adddf3+0x7e4>
80005248:	00f76733          	or	a4,a4,a5
8000524c:	000807b7          	lui	a5,0x80
80005250:	9a070ae3          	beqz	a4,80004c04 <__adddf3+0x17c>
80005254:	00000493          	li	s1,0
80005258:	f51ff06f          	j	800051a8 <__adddf3+0x720>
8000525c:	00000493          	li	s1,0
80005260:	7ff00413          	li	s0,2047
80005264:	000807b7          	lui	a5,0x80
80005268:	f41ff06f          	j	800051a8 <__adddf3+0x720>
8000526c:	00070593          	mv	a1,a4
80005270:	f39ff06f          	j	800051a8 <__adddf3+0x720>

80005274 <__divdf3>:
80005274:	fd010113          	add	sp,sp,-48
80005278:	01712623          	sw	s7,12(sp)
8000527c:	00060b93          	mv	s7,a2
80005280:	0145d613          	srl	a2,a1,0x14
80005284:	02812423          	sw	s0,40(sp)
80005288:	03212023          	sw	s2,32(sp)
8000528c:	01312e23          	sw	s3,28(sp)
80005290:	01612823          	sw	s6,16(sp)
80005294:	00c59413          	sll	s0,a1,0xc
80005298:	02112623          	sw	ra,44(sp)
8000529c:	02912223          	sw	s1,36(sp)
800052a0:	01412c23          	sw	s4,24(sp)
800052a4:	01512a23          	sw	s5,20(sp)
800052a8:	7ff67613          	and	a2,a2,2047
800052ac:	00050b13          	mv	s6,a0
800052b0:	00068913          	mv	s2,a3
800052b4:	00c45413          	srl	s0,s0,0xc
800052b8:	01f5d993          	srl	s3,a1,0x1f
800052bc:	0a060063          	beqz	a2,8000535c <__divdf3+0xe8>
800052c0:	7ff00793          	li	a5,2047
800052c4:	10f60063          	beq	a2,a5,800053c4 <__divdf3+0x150>
800052c8:	01d55693          	srl	a3,a0,0x1d
800052cc:	00341413          	sll	s0,s0,0x3
800052d0:	0086e6b3          	or	a3,a3,s0
800052d4:	008007b7          	lui	a5,0x800
800052d8:	00f6ea33          	or	s4,a3,a5
800052dc:	00351493          	sll	s1,a0,0x3
800052e0:	c0160a93          	add	s5,a2,-1023
800052e4:	00000b13          	li	s6,0
800052e8:	01495793          	srl	a5,s2,0x14
800052ec:	00c91413          	sll	s0,s2,0xc
800052f0:	7ff7f793          	and	a5,a5,2047
800052f4:	00c45413          	srl	s0,s0,0xc
800052f8:	01f95913          	srl	s2,s2,0x1f
800052fc:	10078263          	beqz	a5,80005400 <__divdf3+0x18c>
80005300:	7ff00713          	li	a4,2047
80005304:	16e78663          	beq	a5,a4,80005470 <__divdf3+0x1fc>
80005308:	00341413          	sll	s0,s0,0x3
8000530c:	01dbd713          	srl	a4,s7,0x1d
80005310:	00876733          	or	a4,a4,s0
80005314:	00800437          	lui	s0,0x800
80005318:	00876433          	or	s0,a4,s0
8000531c:	003b9f13          	sll	t5,s7,0x3
80005320:	c0178693          	add	a3,a5,-1023 # 7ffc01 <__heap_size+0x5ffc01>
80005324:	00000593          	li	a1,0
80005328:	002b1793          	sll	a5,s6,0x2
8000532c:	00b7e7b3          	or	a5,a5,a1
80005330:	40da8633          	sub	a2,s5,a3
80005334:	fff78793          	add	a5,a5,-1
80005338:	00e00693          	li	a3,14
8000533c:	0129c733          	xor	a4,s3,s2
80005340:	18f6ec63          	bltu	a3,a5,800054d8 <__divdf3+0x264>
80005344:	800126b7          	lui	a3,0x80012
80005348:	00279793          	sll	a5,a5,0x2
8000534c:	f6868693          	add	a3,a3,-152 # 80011f68 <const_ff+0x568>
80005350:	00d787b3          	add	a5,a5,a3
80005354:	0007a783          	lw	a5,0(a5)
80005358:	00078067          	jr	a5
8000535c:	00a46a33          	or	s4,s0,a0
80005360:	080a0063          	beqz	s4,800053e0 <__divdf3+0x16c>
80005364:	02040e63          	beqz	s0,800053a0 <__divdf3+0x12c>
80005368:	00040513          	mv	a0,s0
8000536c:	4c5020ef          	jal	80008030 <__clzsi2>
80005370:	ff550793          	add	a5,a0,-11
80005374:	01d00693          	li	a3,29
80005378:	ff850713          	add	a4,a0,-8
8000537c:	40f686b3          	sub	a3,a3,a5
80005380:	00e41433          	sll	s0,s0,a4
80005384:	00db56b3          	srl	a3,s6,a3
80005388:	0086ea33          	or	s4,a3,s0
8000538c:	00eb1433          	sll	s0,s6,a4
80005390:	c0d00613          	li	a2,-1011
80005394:	40a60ab3          	sub	s5,a2,a0
80005398:	00040493          	mv	s1,s0
8000539c:	f49ff06f          	j	800052e4 <__divdf3+0x70>
800053a0:	491020ef          	jal	80008030 <__clzsi2>
800053a4:	00050a13          	mv	s4,a0
800053a8:	015a0793          	add	a5,s4,21
800053ac:	01c00713          	li	a4,28
800053b0:	02050513          	add	a0,a0,32
800053b4:	fcf750e3          	bge	a4,a5,80005374 <__divdf3+0x100>
800053b8:	ff8a0a13          	add	s4,s4,-8
800053bc:	014b1a33          	sll	s4,s6,s4
800053c0:	fd1ff06f          	j	80005390 <__divdf3+0x11c>
800053c4:	00a46a33          	or	s4,s0,a0
800053c8:	020a0463          	beqz	s4,800053f0 <__divdf3+0x17c>
800053cc:	00050493          	mv	s1,a0
800053d0:	00040a13          	mv	s4,s0
800053d4:	7ff00a93          	li	s5,2047
800053d8:	00300b13          	li	s6,3
800053dc:	f0dff06f          	j	800052e8 <__divdf3+0x74>
800053e0:	00000493          	li	s1,0
800053e4:	00000a93          	li	s5,0
800053e8:	00100b13          	li	s6,1
800053ec:	efdff06f          	j	800052e8 <__divdf3+0x74>
800053f0:	00000493          	li	s1,0
800053f4:	7ff00a93          	li	s5,2047
800053f8:	00200b13          	li	s6,2
800053fc:	eedff06f          	j	800052e8 <__divdf3+0x74>
80005400:	01746f33          	or	t5,s0,s7
80005404:	080f0263          	beqz	t5,80005488 <__divdf3+0x214>
80005408:	04040063          	beqz	s0,80005448 <__divdf3+0x1d4>
8000540c:	00040513          	mv	a0,s0
80005410:	421020ef          	jal	80008030 <__clzsi2>
80005414:	ff550713          	add	a4,a0,-11
80005418:	01d00793          	li	a5,29
8000541c:	ff850693          	add	a3,a0,-8
80005420:	40e787b3          	sub	a5,a5,a4
80005424:	00d41433          	sll	s0,s0,a3
80005428:	00fbd7b3          	srl	a5,s7,a5
8000542c:	0087e7b3          	or	a5,a5,s0
80005430:	00db9433          	sll	s0,s7,a3
80005434:	c0d00693          	li	a3,-1011
80005438:	00040f13          	mv	t5,s0
8000543c:	40a686b3          	sub	a3,a3,a0
80005440:	00078413          	mv	s0,a5
80005444:	ee1ff06f          	j	80005324 <__divdf3+0xb0>
80005448:	000b8513          	mv	a0,s7
8000544c:	3e5020ef          	jal	80008030 <__clzsi2>
80005450:	00050793          	mv	a5,a0
80005454:	01578713          	add	a4,a5,21
80005458:	01c00693          	li	a3,28
8000545c:	02050513          	add	a0,a0,32
80005460:	fae6dce3          	bge	a3,a4,80005418 <__divdf3+0x1a4>
80005464:	ff878793          	add	a5,a5,-8
80005468:	00fb97b3          	sll	a5,s7,a5
8000546c:	fc9ff06f          	j	80005434 <__divdf3+0x1c0>
80005470:	01746f33          	or	t5,s0,s7
80005474:	020f0263          	beqz	t5,80005498 <__divdf3+0x224>
80005478:	000b8f13          	mv	t5,s7
8000547c:	7ff00693          	li	a3,2047
80005480:	00300593          	li	a1,3
80005484:	ea5ff06f          	j	80005328 <__divdf3+0xb4>
80005488:	00000413          	li	s0,0
8000548c:	00000693          	li	a3,0
80005490:	00100593          	li	a1,1
80005494:	e95ff06f          	j	80005328 <__divdf3+0xb4>
80005498:	00000413          	li	s0,0
8000549c:	7ff00693          	li	a3,2047
800054a0:	00200593          	li	a1,2
800054a4:	e85ff06f          	j	80005328 <__divdf3+0xb4>
800054a8:	00098713          	mv	a4,s3
800054ac:	000a0413          	mv	s0,s4
800054b0:	00048f13          	mv	t5,s1
800054b4:	00200793          	li	a5,2
800054b8:	46fb0263          	beq	s6,a5,8000591c <__divdf3+0x6a8>
800054bc:	00300793          	li	a5,3
800054c0:	44fb0463          	beq	s6,a5,80005908 <__divdf3+0x694>
800054c4:	00100793          	li	a5,1
800054c8:	2cfb1263          	bne	s6,a5,8000578c <__divdf3+0x518>
800054cc:	00000413          	li	s0,0
800054d0:	00000693          	li	a3,0
800054d4:	3f80006f          	j	800058cc <__divdf3+0x658>
800054d8:	01446663          	bltu	s0,s4,800054e4 <__divdf3+0x270>
800054dc:	348a1e63          	bne	s4,s0,80005838 <__divdf3+0x5c4>
800054e0:	35e4ec63          	bltu	s1,t5,80005838 <__divdf3+0x5c4>
800054e4:	01fa1693          	sll	a3,s4,0x1f
800054e8:	0014d793          	srl	a5,s1,0x1
800054ec:	01f49313          	sll	t1,s1,0x1f
800054f0:	001a5a13          	srl	s4,s4,0x1
800054f4:	00f6e4b3          	or	s1,a3,a5
800054f8:	00841413          	sll	s0,s0,0x8
800054fc:	01045893          	srl	a7,s0,0x10
80005500:	031a5eb3          	divu	t4,s4,a7
80005504:	018f5593          	srl	a1,t5,0x18
80005508:	0085e5b3          	or	a1,a1,s0
8000550c:	01059813          	sll	a6,a1,0x10
80005510:	01085813          	srl	a6,a6,0x10
80005514:	0104d793          	srl	a5,s1,0x10
80005518:	008f1513          	sll	a0,t5,0x8
8000551c:	031a76b3          	remu	a3,s4,a7
80005520:	03d80e33          	mul	t3,a6,t4
80005524:	01069693          	sll	a3,a3,0x10
80005528:	00d7e7b3          	or	a5,a5,a3
8000552c:	000e8693          	mv	a3,t4
80005530:	01c7fe63          	bgeu	a5,t3,8000554c <__divdf3+0x2d8>
80005534:	00f587b3          	add	a5,a1,a5
80005538:	fffe8693          	add	a3,t4,-1
8000553c:	00b7e863          	bltu	a5,a1,8000554c <__divdf3+0x2d8>
80005540:	01c7f663          	bgeu	a5,t3,8000554c <__divdf3+0x2d8>
80005544:	ffee8693          	add	a3,t4,-2
80005548:	00b787b3          	add	a5,a5,a1
8000554c:	41c787b3          	sub	a5,a5,t3
80005550:	0317deb3          	divu	t4,a5,a7
80005554:	01049493          	sll	s1,s1,0x10
80005558:	0104d493          	srl	s1,s1,0x10
8000555c:	0317f7b3          	remu	a5,a5,a7
80005560:	03d80e33          	mul	t3,a6,t4
80005564:	01079793          	sll	a5,a5,0x10
80005568:	00f4e4b3          	or	s1,s1,a5
8000556c:	000e8793          	mv	a5,t4
80005570:	01c4fe63          	bgeu	s1,t3,8000558c <__divdf3+0x318>
80005574:	009584b3          	add	s1,a1,s1
80005578:	fffe8793          	add	a5,t4,-1
8000557c:	00b4e863          	bltu	s1,a1,8000558c <__divdf3+0x318>
80005580:	01c4f663          	bgeu	s1,t3,8000558c <__divdf3+0x318>
80005584:	ffee8793          	add	a5,t4,-2
80005588:	00b484b3          	add	s1,s1,a1
8000558c:	01069693          	sll	a3,a3,0x10
80005590:	000103b7          	lui	t2,0x10
80005594:	00f6efb3          	or	t6,a3,a5
80005598:	41c484b3          	sub	s1,s1,t3
8000559c:	fff38e13          	add	t3,t2,-1 # ffff <__stack_size+0xf7ff>
800055a0:	01cff7b3          	and	a5,t6,t3
800055a4:	010fdf13          	srl	t5,t6,0x10
800055a8:	01055e93          	srl	t4,a0,0x10
800055ac:	01c57e33          	and	t3,a0,t3
800055b0:	02fe02b3          	mul	t0,t3,a5
800055b4:	03cf0433          	mul	s0,t5,t3
800055b8:	0102d693          	srl	a3,t0,0x10
800055bc:	02fe87b3          	mul	a5,t4,a5
800055c0:	008787b3          	add	a5,a5,s0
800055c4:	00f686b3          	add	a3,a3,a5
800055c8:	03df0f33          	mul	t5,t5,t4
800055cc:	0086f463          	bgeu	a3,s0,800055d4 <__divdf3+0x360>
800055d0:	007f0f33          	add	t5,t5,t2
800055d4:	0106d793          	srl	a5,a3,0x10
800055d8:	01e787b3          	add	a5,a5,t5
800055dc:	00010f37          	lui	t5,0x10
800055e0:	ffff0f13          	add	t5,t5,-1 # ffff <__stack_size+0xf7ff>
800055e4:	01e6f6b3          	and	a3,a3,t5
800055e8:	01069693          	sll	a3,a3,0x10
800055ec:	01e2f2b3          	and	t0,t0,t5
800055f0:	005686b3          	add	a3,a3,t0
800055f4:	00f4e863          	bltu	s1,a5,80005604 <__divdf3+0x390>
800055f8:	000f8413          	mv	s0,t6
800055fc:	04f49863          	bne	s1,a5,8000564c <__divdf3+0x3d8>
80005600:	04d37663          	bgeu	t1,a3,8000564c <__divdf3+0x3d8>
80005604:	00a30f33          	add	t5,t1,a0
80005608:	006f32b3          	sltu	t0,t5,t1
8000560c:	00b283b3          	add	t2,t0,a1
80005610:	007484b3          	add	s1,s1,t2
80005614:	ffff8413          	add	s0,t6,-1
80005618:	000f0313          	mv	t1,t5
8000561c:	0095e663          	bltu	a1,s1,80005628 <__divdf3+0x3b4>
80005620:	02959663          	bne	a1,s1,8000564c <__divdf3+0x3d8>
80005624:	02029463          	bnez	t0,8000564c <__divdf3+0x3d8>
80005628:	00f4e663          	bltu	s1,a5,80005634 <__divdf3+0x3c0>
8000562c:	02979063          	bne	a5,s1,8000564c <__divdf3+0x3d8>
80005630:	00df7e63          	bgeu	t5,a3,8000564c <__divdf3+0x3d8>
80005634:	01e50f33          	add	t5,a0,t5
80005638:	000f0313          	mv	t1,t5
8000563c:	00af3f33          	sltu	t5,t5,a0
80005640:	00bf0f33          	add	t5,t5,a1
80005644:	ffef8413          	add	s0,t6,-2
80005648:	01e484b3          	add	s1,s1,t5
8000564c:	40d306b3          	sub	a3,t1,a3
80005650:	40f484b3          	sub	s1,s1,a5
80005654:	00d33333          	sltu	t1,t1,a3
80005658:	406484b3          	sub	s1,s1,t1
8000565c:	fff00f13          	li	t5,-1
80005660:	12958663          	beq	a1,s1,8000578c <__divdf3+0x518>
80005664:	0314dfb3          	divu	t6,s1,a7
80005668:	0106d793          	srl	a5,a3,0x10
8000566c:	0314f4b3          	remu	s1,s1,a7
80005670:	000f8313          	mv	t1,t6
80005674:	03f80f33          	mul	t5,a6,t6
80005678:	01049493          	sll	s1,s1,0x10
8000567c:	0097e7b3          	or	a5,a5,s1
80005680:	01e7fe63          	bgeu	a5,t5,8000569c <__divdf3+0x428>
80005684:	00f587b3          	add	a5,a1,a5
80005688:	ffff8313          	add	t1,t6,-1
8000568c:	00b7e863          	bltu	a5,a1,8000569c <__divdf3+0x428>
80005690:	01e7f663          	bgeu	a5,t5,8000569c <__divdf3+0x428>
80005694:	ffef8313          	add	t1,t6,-2
80005698:	00b787b3          	add	a5,a5,a1
8000569c:	41e787b3          	sub	a5,a5,t5
800056a0:	0317df33          	divu	t5,a5,a7
800056a4:	01069693          	sll	a3,a3,0x10
800056a8:	0106d693          	srl	a3,a3,0x10
800056ac:	0317f7b3          	remu	a5,a5,a7
800056b0:	03e80833          	mul	a6,a6,t5
800056b4:	01079793          	sll	a5,a5,0x10
800056b8:	00f6e7b3          	or	a5,a3,a5
800056bc:	000f0693          	mv	a3,t5
800056c0:	0107fe63          	bgeu	a5,a6,800056dc <__divdf3+0x468>
800056c4:	00f587b3          	add	a5,a1,a5
800056c8:	ffff0693          	add	a3,t5,-1
800056cc:	00b7e863          	bltu	a5,a1,800056dc <__divdf3+0x468>
800056d0:	0107f663          	bgeu	a5,a6,800056dc <__divdf3+0x468>
800056d4:	ffef0693          	add	a3,t5,-2
800056d8:	00b787b3          	add	a5,a5,a1
800056dc:	01031313          	sll	t1,t1,0x10
800056e0:	00d36333          	or	t1,t1,a3
800056e4:	01031693          	sll	a3,t1,0x10
800056e8:	0106d693          	srl	a3,a3,0x10
800056ec:	01035893          	srl	a7,t1,0x10
800056f0:	03c68f33          	mul	t5,a3,t3
800056f4:	410787b3          	sub	a5,a5,a6
800056f8:	03c88e33          	mul	t3,a7,t3
800056fc:	031e88b3          	mul	a7,t4,a7
80005700:	02de8eb3          	mul	t4,t4,a3
80005704:	010f5693          	srl	a3,t5,0x10
80005708:	01ce8eb3          	add	t4,t4,t3
8000570c:	01d686b3          	add	a3,a3,t4
80005710:	01c6f663          	bgeu	a3,t3,8000571c <__divdf3+0x4a8>
80005714:	00010837          	lui	a6,0x10
80005718:	010888b3          	add	a7,a7,a6
8000571c:	0106d813          	srl	a6,a3,0x10
80005720:	01180833          	add	a6,a6,a7
80005724:	000108b7          	lui	a7,0x10
80005728:	fff88893          	add	a7,a7,-1 # ffff <__stack_size+0xf7ff>
8000572c:	0116f6b3          	and	a3,a3,a7
80005730:	01069693          	sll	a3,a3,0x10
80005734:	011f7f33          	and	t5,t5,a7
80005738:	01e686b3          	add	a3,a3,t5
8000573c:	0107e863          	bltu	a5,a6,8000574c <__divdf3+0x4d8>
80005740:	00030f13          	mv	t5,t1
80005744:	05079263          	bne	a5,a6,80005788 <__divdf3+0x514>
80005748:	04068263          	beqz	a3,8000578c <__divdf3+0x518>
8000574c:	00f587b3          	add	a5,a1,a5
80005750:	fff30f13          	add	t5,t1,-1
80005754:	00078893          	mv	a7,a5
80005758:	02b7e463          	bltu	a5,a1,80005780 <__divdf3+0x50c>
8000575c:	0107e663          	bltu	a5,a6,80005768 <__divdf3+0x4f4>
80005760:	03079463          	bne	a5,a6,80005788 <__divdf3+0x514>
80005764:	02d57063          	bgeu	a0,a3,80005784 <__divdf3+0x510>
80005768:	ffe30f13          	add	t5,t1,-2
8000576c:	00151313          	sll	t1,a0,0x1
80005770:	00a338b3          	sltu	a7,t1,a0
80005774:	00b888b3          	add	a7,a7,a1
80005778:	011788b3          	add	a7,a5,a7
8000577c:	00030513          	mv	a0,t1
80005780:	01089463          	bne	a7,a6,80005788 <__divdf3+0x514>
80005784:	00a68463          	beq	a3,a0,8000578c <__divdf3+0x518>
80005788:	001f6f13          	or	t5,t5,1
8000578c:	3ff60793          	add	a5,a2,1023
80005790:	0cf05063          	blez	a5,80005850 <__divdf3+0x5dc>
80005794:	007f7693          	and	a3,t5,7
80005798:	02068063          	beqz	a3,800057b8 <__divdf3+0x544>
8000579c:	00ff7693          	and	a3,t5,15
800057a0:	00400593          	li	a1,4
800057a4:	00b68a63          	beq	a3,a1,800057b8 <__divdf3+0x544>
800057a8:	004f0693          	add	a3,t5,4
800057ac:	01e6b5b3          	sltu	a1,a3,t5
800057b0:	00b40433          	add	s0,s0,a1
800057b4:	00068f13          	mv	t5,a3
800057b8:	010006b7          	lui	a3,0x1000
800057bc:	00d476b3          	and	a3,s0,a3
800057c0:	00068a63          	beqz	a3,800057d4 <__divdf3+0x560>
800057c4:	ff0007b7          	lui	a5,0xff000
800057c8:	fff78793          	add	a5,a5,-1 # feffffff <__freertos_irq_stack_top+0x7eded6cf>
800057cc:	00f47433          	and	s0,s0,a5
800057d0:	40060793          	add	a5,a2,1024
800057d4:	7fe00693          	li	a3,2046
800057d8:	14f6c263          	blt	a3,a5,8000591c <__divdf3+0x6a8>
800057dc:	01d41693          	sll	a3,s0,0x1d
800057e0:	003f5f13          	srl	t5,t5,0x3
800057e4:	01e6e6b3          	or	a3,a3,t5
800057e8:	00345413          	srl	s0,s0,0x3
800057ec:	00c41413          	sll	s0,s0,0xc
800057f0:	00c45413          	srl	s0,s0,0xc
800057f4:	01479793          	sll	a5,a5,0x14
800057f8:	02c12083          	lw	ra,44(sp)
800057fc:	0087e7b3          	or	a5,a5,s0
80005800:	02812403          	lw	s0,40(sp)
80005804:	01f71713          	sll	a4,a4,0x1f
80005808:	00e7e633          	or	a2,a5,a4
8000580c:	02412483          	lw	s1,36(sp)
80005810:	02012903          	lw	s2,32(sp)
80005814:	01c12983          	lw	s3,28(sp)
80005818:	01812a03          	lw	s4,24(sp)
8000581c:	01412a83          	lw	s5,20(sp)
80005820:	01012b03          	lw	s6,16(sp)
80005824:	00c12b83          	lw	s7,12(sp)
80005828:	00068513          	mv	a0,a3
8000582c:	00060593          	mv	a1,a2
80005830:	03010113          	add	sp,sp,48
80005834:	00008067          	ret
80005838:	fff60613          	add	a2,a2,-1
8000583c:	00000313          	li	t1,0
80005840:	cb9ff06f          	j	800054f8 <__divdf3+0x284>
80005844:	00090713          	mv	a4,s2
80005848:	00058b13          	mv	s6,a1
8000584c:	c69ff06f          	j	800054b4 <__divdf3+0x240>
80005850:	00100593          	li	a1,1
80005854:	00078c63          	beqz	a5,8000586c <__divdf3+0x5f8>
80005858:	40f585b3          	sub	a1,a1,a5
8000585c:	03800693          	li	a3,56
80005860:	c6b6c6e3          	blt	a3,a1,800054cc <__divdf3+0x258>
80005864:	01f00693          	li	a3,31
80005868:	06b6c663          	blt	a3,a1,800058d4 <__divdf3+0x660>
8000586c:	41e60613          	add	a2,a2,1054
80005870:	00bf57b3          	srl	a5,t5,a1
80005874:	00cf1f33          	sll	t5,t5,a2
80005878:	01e03f33          	snez	t5,t5
8000587c:	00c41633          	sll	a2,s0,a2
80005880:	00cf6f33          	or	t5,t5,a2
80005884:	01e7e7b3          	or	a5,a5,t5
80005888:	00b45433          	srl	s0,s0,a1
8000588c:	0077f693          	and	a3,a5,7
80005890:	02068063          	beqz	a3,800058b0 <__divdf3+0x63c>
80005894:	00f7f693          	and	a3,a5,15
80005898:	00400613          	li	a2,4
8000589c:	00c68a63          	beq	a3,a2,800058b0 <__divdf3+0x63c>
800058a0:	00478693          	add	a3,a5,4
800058a4:	00f6b633          	sltu	a2,a3,a5
800058a8:	00c40433          	add	s0,s0,a2
800058ac:	00068793          	mv	a5,a3
800058b0:	008006b7          	lui	a3,0x800
800058b4:	00d476b3          	and	a3,s0,a3
800058b8:	06069a63          	bnez	a3,8000592c <__divdf3+0x6b8>
800058bc:	01d41693          	sll	a3,s0,0x1d
800058c0:	0037d793          	srl	a5,a5,0x3
800058c4:	00f6e6b3          	or	a3,a3,a5
800058c8:	00345413          	srl	s0,s0,0x3
800058cc:	00000793          	li	a5,0
800058d0:	f1dff06f          	j	800057ec <__divdf3+0x578>
800058d4:	fe100693          	li	a3,-31
800058d8:	40f687b3          	sub	a5,a3,a5
800058dc:	02000513          	li	a0,32
800058e0:	00f457b3          	srl	a5,s0,a5
800058e4:	00000693          	li	a3,0
800058e8:	00a58663          	beq	a1,a0,800058f4 <__divdf3+0x680>
800058ec:	43e60613          	add	a2,a2,1086
800058f0:	00c416b3          	sll	a3,s0,a2
800058f4:	01e6e6b3          	or	a3,a3,t5
800058f8:	00d036b3          	snez	a3,a3
800058fc:	00d7e7b3          	or	a5,a5,a3
80005900:	00000413          	li	s0,0
80005904:	f89ff06f          	j	8000588c <__divdf3+0x618>
80005908:	00080437          	lui	s0,0x80
8000590c:	00000693          	li	a3,0
80005910:	7ff00793          	li	a5,2047
80005914:	00000713          	li	a4,0
80005918:	ed5ff06f          	j	800057ec <__divdf3+0x578>
8000591c:	00000413          	li	s0,0
80005920:	00000693          	li	a3,0
80005924:	7ff00793          	li	a5,2047
80005928:	ec5ff06f          	j	800057ec <__divdf3+0x578>
8000592c:	00000413          	li	s0,0
80005930:	00000693          	li	a3,0
80005934:	00100793          	li	a5,1
80005938:	eb5ff06f          	j	800057ec <__divdf3+0x578>

8000593c <__gedf2>:
8000593c:	0146d793          	srl	a5,a3,0x14
80005940:	0145d313          	srl	t1,a1,0x14
80005944:	00100737          	lui	a4,0x100
80005948:	fff70713          	add	a4,a4,-1 # fffff <__stack_size+0xff7ff>
8000594c:	00050813          	mv	a6,a0
80005950:	00050e13          	mv	t3,a0
80005954:	7ff37313          	and	t1,t1,2047
80005958:	7ff7f513          	and	a0,a5,2047
8000595c:	7ff00793          	li	a5,2047
80005960:	00b778b3          	and	a7,a4,a1
80005964:	00060e93          	mv	t4,a2
80005968:	00d77733          	and	a4,a4,a3
8000596c:	01f5d593          	srl	a1,a1,0x1f
80005970:	01f6d693          	srl	a3,a3,0x1f
80005974:	02f31c63          	bne	t1,a5,800059ac <__gedf2+0x70>
80005978:	0108e8b3          	or	a7,a7,a6
8000597c:	0c089463          	bnez	a7,80005a44 <__gedf2+0x108>
80005980:	00650a63          	beq	a0,t1,80005994 <__gedf2+0x58>
80005984:	00100513          	li	a0,1
80005988:	0a058c63          	beqz	a1,80005a40 <__gedf2+0x104>
8000598c:	fff00513          	li	a0,-1
80005990:	00008067          	ret
80005994:	00c76733          	or	a4,a4,a2
80005998:	ffe00513          	li	a0,-2
8000599c:	0a071263          	bnez	a4,80005a40 <__gedf2+0x104>
800059a0:	fed592e3          	bne	a1,a3,80005984 <__gedf2+0x48>
800059a4:	00000513          	li	a0,0
800059a8:	00008067          	ret
800059ac:	04f51063          	bne	a0,a5,800059ec <__gedf2+0xb0>
800059b0:	00c76733          	or	a4,a4,a2
800059b4:	ffe00513          	li	a0,-2
800059b8:	08071463          	bnez	a4,80005a40 <__gedf2+0x104>
800059bc:	00030c63          	beqz	t1,800059d4 <__gedf2+0x98>
800059c0:	fcd592e3          	bne	a1,a3,80005984 <__gedf2+0x48>
800059c4:	fff00513          	li	a0,-1
800059c8:	06058c63          	beqz	a1,80005a40 <__gedf2+0x104>
800059cc:	00058513          	mv	a0,a1
800059d0:	00008067          	ret
800059d4:	0108e8b3          	or	a7,a7,a6
800059d8:	fe0894e3          	bnez	a7,800059c0 <__gedf2+0x84>
800059dc:	fff00513          	li	a0,-1
800059e0:	06068063          	beqz	a3,80005a40 <__gedf2+0x104>
800059e4:	00068513          	mv	a0,a3
800059e8:	00008067          	ret
800059ec:	02030663          	beqz	t1,80005a18 <__gedf2+0xdc>
800059f0:	f8050ae3          	beqz	a0,80005984 <__gedf2+0x48>
800059f4:	f8d598e3          	bne	a1,a3,80005984 <__gedf2+0x48>
800059f8:	f86546e3          	blt	a0,t1,80005984 <__gedf2+0x48>
800059fc:	fca344e3          	blt	t1,a0,800059c4 <__gedf2+0x88>
80005a00:	f91762e3          	bltu	a4,a7,80005984 <__gedf2+0x48>
80005a04:	fce890e3          	bne	a7,a4,800059c4 <__gedf2+0x88>
80005a08:	f7ceeee3          	bltu	t4,t3,80005984 <__gedf2+0x48>
80005a0c:	00000513          	li	a0,0
80005a10:	03de7863          	bgeu	t3,t4,80005a40 <__gedf2+0x104>
80005a14:	fb1ff06f          	j	800059c4 <__gedf2+0x88>
80005a18:	0108e833          	or	a6,a7,a6
80005a1c:	00050663          	beqz	a0,80005a28 <__gedf2+0xec>
80005a20:	fa080ee3          	beqz	a6,800059dc <__gedf2+0xa0>
80005a24:	f9dff06f          	j	800059c0 <__gedf2+0x84>
80005a28:	00c76633          	or	a2,a4,a2
80005a2c:	00060863          	beqz	a2,80005a3c <__gedf2+0x100>
80005a30:	fa0806e3          	beqz	a6,800059dc <__gedf2+0xa0>
80005a34:	fcd586e3          	beq	a1,a3,80005a00 <__gedf2+0xc4>
80005a38:	f4dff06f          	j	80005984 <__gedf2+0x48>
80005a3c:	f40814e3          	bnez	a6,80005984 <__gedf2+0x48>
80005a40:	00008067          	ret
80005a44:	ffe00513          	li	a0,-2
80005a48:	00008067          	ret

80005a4c <__ledf2>:
80005a4c:	0146d793          	srl	a5,a3,0x14
80005a50:	0145d313          	srl	t1,a1,0x14
80005a54:	00100737          	lui	a4,0x100
80005a58:	fff70713          	add	a4,a4,-1 # fffff <__stack_size+0xff7ff>
80005a5c:	00050813          	mv	a6,a0
80005a60:	00050e13          	mv	t3,a0
80005a64:	7ff37313          	and	t1,t1,2047
80005a68:	7ff7f513          	and	a0,a5,2047
80005a6c:	7ff00793          	li	a5,2047
80005a70:	00b778b3          	and	a7,a4,a1
80005a74:	00060e93          	mv	t4,a2
80005a78:	00d77733          	and	a4,a4,a3
80005a7c:	01f5d593          	srl	a1,a1,0x1f
80005a80:	01f6d693          	srl	a3,a3,0x1f
80005a84:	02f31c63          	bne	t1,a5,80005abc <__ledf2+0x70>
80005a88:	0108e8b3          	or	a7,a7,a6
80005a8c:	0c089463          	bnez	a7,80005b54 <__ledf2+0x108>
80005a90:	00650a63          	beq	a0,t1,80005aa4 <__ledf2+0x58>
80005a94:	00100513          	li	a0,1
80005a98:	0a058c63          	beqz	a1,80005b50 <__ledf2+0x104>
80005a9c:	fff00513          	li	a0,-1
80005aa0:	00008067          	ret
80005aa4:	00c76733          	or	a4,a4,a2
80005aa8:	00200513          	li	a0,2
80005aac:	0a071263          	bnez	a4,80005b50 <__ledf2+0x104>
80005ab0:	fed592e3          	bne	a1,a3,80005a94 <__ledf2+0x48>
80005ab4:	00000513          	li	a0,0
80005ab8:	00008067          	ret
80005abc:	04f51063          	bne	a0,a5,80005afc <__ledf2+0xb0>
80005ac0:	00c76733          	or	a4,a4,a2
80005ac4:	00200513          	li	a0,2
80005ac8:	08071463          	bnez	a4,80005b50 <__ledf2+0x104>
80005acc:	00030c63          	beqz	t1,80005ae4 <__ledf2+0x98>
80005ad0:	fcd592e3          	bne	a1,a3,80005a94 <__ledf2+0x48>
80005ad4:	fff00513          	li	a0,-1
80005ad8:	06058c63          	beqz	a1,80005b50 <__ledf2+0x104>
80005adc:	00058513          	mv	a0,a1
80005ae0:	00008067          	ret
80005ae4:	0108e8b3          	or	a7,a7,a6
80005ae8:	fe0894e3          	bnez	a7,80005ad0 <__ledf2+0x84>
80005aec:	fff00513          	li	a0,-1
80005af0:	06068063          	beqz	a3,80005b50 <__ledf2+0x104>
80005af4:	00068513          	mv	a0,a3
80005af8:	00008067          	ret
80005afc:	02030663          	beqz	t1,80005b28 <__ledf2+0xdc>
80005b00:	f8050ae3          	beqz	a0,80005a94 <__ledf2+0x48>
80005b04:	f8d598e3          	bne	a1,a3,80005a94 <__ledf2+0x48>
80005b08:	f86546e3          	blt	a0,t1,80005a94 <__ledf2+0x48>
80005b0c:	fca344e3          	blt	t1,a0,80005ad4 <__ledf2+0x88>
80005b10:	f91762e3          	bltu	a4,a7,80005a94 <__ledf2+0x48>
80005b14:	fce890e3          	bne	a7,a4,80005ad4 <__ledf2+0x88>
80005b18:	f7ceeee3          	bltu	t4,t3,80005a94 <__ledf2+0x48>
80005b1c:	00000513          	li	a0,0
80005b20:	03de7863          	bgeu	t3,t4,80005b50 <__ledf2+0x104>
80005b24:	fb1ff06f          	j	80005ad4 <__ledf2+0x88>
80005b28:	0108e833          	or	a6,a7,a6
80005b2c:	00050663          	beqz	a0,80005b38 <__ledf2+0xec>
80005b30:	fa080ee3          	beqz	a6,80005aec <__ledf2+0xa0>
80005b34:	f9dff06f          	j	80005ad0 <__ledf2+0x84>
80005b38:	00c76633          	or	a2,a4,a2
80005b3c:	00060863          	beqz	a2,80005b4c <__ledf2+0x100>
80005b40:	fa0806e3          	beqz	a6,80005aec <__ledf2+0xa0>
80005b44:	fcd586e3          	beq	a1,a3,80005b10 <__ledf2+0xc4>
80005b48:	f4dff06f          	j	80005a94 <__ledf2+0x48>
80005b4c:	f40814e3          	bnez	a6,80005a94 <__ledf2+0x48>
80005b50:	00008067          	ret
80005b54:	00200513          	li	a0,2
80005b58:	00008067          	ret

80005b5c <__muldf3>:
80005b5c:	fd010113          	add	sp,sp,-48
80005b60:	01512a23          	sw	s5,20(sp)
80005b64:	0145da93          	srl	s5,a1,0x14
80005b68:	02812423          	sw	s0,40(sp)
80005b6c:	02912223          	sw	s1,36(sp)
80005b70:	01312e23          	sw	s3,28(sp)
80005b74:	01412c23          	sw	s4,24(sp)
80005b78:	01612823          	sw	s6,16(sp)
80005b7c:	00c59493          	sll	s1,a1,0xc
80005b80:	02112623          	sw	ra,44(sp)
80005b84:	03212023          	sw	s2,32(sp)
80005b88:	01712623          	sw	s7,12(sp)
80005b8c:	7ffafa93          	and	s5,s5,2047
80005b90:	00050413          	mv	s0,a0
80005b94:	00060b13          	mv	s6,a2
80005b98:	00068993          	mv	s3,a3
80005b9c:	00c4d493          	srl	s1,s1,0xc
80005ba0:	01f5da13          	srl	s4,a1,0x1f
80005ba4:	300a8063          	beqz	s5,80005ea4 <__muldf3+0x348>
80005ba8:	7ff00793          	li	a5,2047
80005bac:	36fa8263          	beq	s5,a5,80005f10 <__muldf3+0x3b4>
80005bb0:	00349493          	sll	s1,s1,0x3
80005bb4:	01d55793          	srl	a5,a0,0x1d
80005bb8:	0097e7b3          	or	a5,a5,s1
80005bbc:	008004b7          	lui	s1,0x800
80005bc0:	0097e4b3          	or	s1,a5,s1
80005bc4:	00351913          	sll	s2,a0,0x3
80005bc8:	c01a8a93          	add	s5,s5,-1023
80005bcc:	00000b93          	li	s7,0
80005bd0:	0149d713          	srl	a4,s3,0x14
80005bd4:	00c99413          	sll	s0,s3,0xc
80005bd8:	7ff77713          	and	a4,a4,2047
80005bdc:	00c45413          	srl	s0,s0,0xc
80005be0:	01f9d993          	srl	s3,s3,0x1f
80005be4:	36070263          	beqz	a4,80005f48 <__muldf3+0x3ec>
80005be8:	7ff00793          	li	a5,2047
80005bec:	3cf70663          	beq	a4,a5,80005fb8 <__muldf3+0x45c>
80005bf0:	00341413          	sll	s0,s0,0x3
80005bf4:	01db5793          	srl	a5,s6,0x1d
80005bf8:	0087e7b3          	or	a5,a5,s0
80005bfc:	00800437          	lui	s0,0x800
80005c00:	0087e433          	or	s0,a5,s0
80005c04:	c0170693          	add	a3,a4,-1023
80005c08:	003b1793          	sll	a5,s6,0x3
80005c0c:	00000513          	li	a0,0
80005c10:	002b9713          	sll	a4,s7,0x2
80005c14:	00da8ab3          	add	s5,s5,a3
80005c18:	00a76733          	or	a4,a4,a0
80005c1c:	00a00693          	li	a3,10
80005c20:	013a4633          	xor	a2,s4,s3
80005c24:	001a8593          	add	a1,s5,1
80005c28:	40e6c863          	blt	a3,a4,80006038 <__muldf3+0x4dc>
80005c2c:	00200693          	li	a3,2
80005c30:	3ce6c063          	blt	a3,a4,80005ff0 <__muldf3+0x494>
80005c34:	fff70713          	add	a4,a4,-1
80005c38:	00100693          	li	a3,1
80005c3c:	3ce6fc63          	bgeu	a3,a4,80006014 <__muldf3+0x4b8>
80005c40:	00010837          	lui	a6,0x10
80005c44:	fff80e93          	add	t4,a6,-1 # ffff <__stack_size+0xf7ff>
80005c48:	01095693          	srl	a3,s2,0x10
80005c4c:	0107d893          	srl	a7,a5,0x10
80005c50:	01d97933          	and	s2,s2,t4
80005c54:	01d7ff33          	and	t5,a5,t4
80005c58:	03e907b3          	mul	a5,s2,t5
80005c5c:	03e68333          	mul	t1,a3,t5
80005c60:	0107d513          	srl	a0,a5,0x10
80005c64:	03288733          	mul	a4,a7,s2
80005c68:	00670733          	add	a4,a4,t1
80005c6c:	00e50533          	add	a0,a0,a4
80005c70:	03168e33          	mul	t3,a3,a7
80005c74:	00657463          	bgeu	a0,t1,80005c7c <__muldf3+0x120>
80005c78:	010e0e33          	add	t3,t3,a6
80005c7c:	01055713          	srl	a4,a0,0x10
80005c80:	01d57533          	and	a0,a0,t4
80005c84:	01d7f7b3          	and	a5,a5,t4
80005c88:	01045813          	srl	a6,s0,0x10
80005c8c:	01d47eb3          	and	t4,s0,t4
80005c90:	01051513          	sll	a0,a0,0x10
80005c94:	00f50533          	add	a0,a0,a5
80005c98:	03d90fb3          	mul	t6,s2,t4
80005c9c:	03d687b3          	mul	a5,a3,t4
80005ca0:	03280933          	mul	s2,a6,s2
80005ca4:	03068333          	mul	t1,a3,a6
80005ca8:	00f90933          	add	s2,s2,a5
80005cac:	010fd693          	srl	a3,t6,0x10
80005cb0:	012686b3          	add	a3,a3,s2
80005cb4:	00f6f663          	bgeu	a3,a5,80005cc0 <__muldf3+0x164>
80005cb8:	000107b7          	lui	a5,0x10
80005cbc:	00f30333          	add	t1,t1,a5
80005cc0:	000103b7          	lui	t2,0x10
80005cc4:	0106d793          	srl	a5,a3,0x10
80005cc8:	fff38293          	add	t0,t2,-1 # ffff <__stack_size+0xf7ff>
80005ccc:	00678333          	add	t1,a5,t1
80005cd0:	0056f7b3          	and	a5,a3,t0
80005cd4:	005fffb3          	and	t6,t6,t0
80005cd8:	0104d913          	srl	s2,s1,0x10
80005cdc:	0054f2b3          	and	t0,s1,t0
80005ce0:	01079793          	sll	a5,a5,0x10
80005ce4:	01f787b3          	add	a5,a5,t6
80005ce8:	03288433          	mul	s0,a7,s2
80005cec:	00f70733          	add	a4,a4,a5
80005cf0:	025f0fb3          	mul	t6,t5,t0
80005cf4:	025888b3          	mul	a7,a7,t0
80005cf8:	010fd693          	srl	a3,t6,0x10
80005cfc:	03e90f33          	mul	t5,s2,t5
80005d00:	01e888b3          	add	a7,a7,t5
80005d04:	011686b3          	add	a3,a3,a7
80005d08:	01e6f463          	bgeu	a3,t5,80005d10 <__muldf3+0x1b4>
80005d0c:	00740433          	add	s0,s0,t2
80005d10:	025e83b3          	mul	t2,t4,t0
80005d14:	0106df13          	srl	t5,a3,0x10
80005d18:	000104b7          	lui	s1,0x10
80005d1c:	008f0f33          	add	t5,t5,s0
80005d20:	fff48413          	add	s0,s1,-1 # ffff <__stack_size+0xf7ff>
80005d24:	0086f6b3          	and	a3,a3,s0
80005d28:	01069693          	sll	a3,a3,0x10
80005d2c:	008fffb3          	and	t6,t6,s0
80005d30:	01f68fb3          	add	t6,a3,t6
80005d34:	03d90eb3          	mul	t4,s2,t4
80005d38:	0103d693          	srl	a3,t2,0x10
80005d3c:	032808b3          	mul	a7,a6,s2
80005d40:	02580833          	mul	a6,a6,t0
80005d44:	01d80833          	add	a6,a6,t4
80005d48:	01068833          	add	a6,a3,a6
80005d4c:	01d87463          	bgeu	a6,t4,80005d54 <__muldf3+0x1f8>
80005d50:	009888b3          	add	a7,a7,s1
80005d54:	008876b3          	and	a3,a6,s0
80005d58:	0083f3b3          	and	t2,t2,s0
80005d5c:	01069693          	sll	a3,a3,0x10
80005d60:	01c70733          	add	a4,a4,t3
80005d64:	007686b3          	add	a3,a3,t2
80005d68:	00668333          	add	t1,a3,t1
80005d6c:	00f737b3          	sltu	a5,a4,a5
80005d70:	00f307b3          	add	a5,t1,a5
80005d74:	00d336b3          	sltu	a3,t1,a3
80005d78:	0067b333          	sltu	t1,a5,t1
80005d7c:	01085813          	srl	a6,a6,0x10
80005d80:	0066e6b3          	or	a3,a3,t1
80005d84:	010686b3          	add	a3,a3,a6
80005d88:	01f70833          	add	a6,a4,t6
80005d8c:	01e78f33          	add	t5,a5,t5
80005d90:	00e83733          	sltu	a4,a6,a4
80005d94:	00ef0733          	add	a4,t5,a4
80005d98:	00ff3433          	sltu	s0,t5,a5
80005d9c:	01e73f33          	sltu	t5,a4,t5
80005da0:	01e46433          	or	s0,s0,t5
80005da4:	00d40433          	add	s0,s0,a3
80005da8:	01140433          	add	s0,s0,a7
80005dac:	01775793          	srl	a5,a4,0x17
80005db0:	00941413          	sll	s0,s0,0x9
80005db4:	00f46433          	or	s0,s0,a5
80005db8:	00981793          	sll	a5,a6,0x9
80005dbc:	00a7e7b3          	or	a5,a5,a0
80005dc0:	00f037b3          	snez	a5,a5
80005dc4:	01785813          	srl	a6,a6,0x17
80005dc8:	00971713          	sll	a4,a4,0x9
80005dcc:	0107e7b3          	or	a5,a5,a6
80005dd0:	00e7e7b3          	or	a5,a5,a4
80005dd4:	01000737          	lui	a4,0x1000
80005dd8:	00e47733          	and	a4,s0,a4
80005ddc:	28070063          	beqz	a4,8000605c <__muldf3+0x500>
80005de0:	0017d713          	srl	a4,a5,0x1
80005de4:	0017f793          	and	a5,a5,1
80005de8:	00f76733          	or	a4,a4,a5
80005dec:	01f41793          	sll	a5,s0,0x1f
80005df0:	00f767b3          	or	a5,a4,a5
80005df4:	00145413          	srl	s0,s0,0x1
80005df8:	3ff58693          	add	a3,a1,1023 # 8003ff <__heap_size+0x6003ff>
80005dfc:	26d05463          	blez	a3,80006064 <__muldf3+0x508>
80005e00:	0077f713          	and	a4,a5,7
80005e04:	02070063          	beqz	a4,80005e24 <__muldf3+0x2c8>
80005e08:	00f7f713          	and	a4,a5,15
80005e0c:	00400513          	li	a0,4
80005e10:	00a70a63          	beq	a4,a0,80005e24 <__muldf3+0x2c8>
80005e14:	00478713          	add	a4,a5,4 # 10004 <__stack_size+0xf804>
80005e18:	00f73533          	sltu	a0,a4,a5
80005e1c:	00a40433          	add	s0,s0,a0
80005e20:	00070793          	mv	a5,a4
80005e24:	01000737          	lui	a4,0x1000
80005e28:	00e47733          	and	a4,s0,a4
80005e2c:	00070a63          	beqz	a4,80005e40 <__muldf3+0x2e4>
80005e30:	ff000737          	lui	a4,0xff000
80005e34:	fff70713          	add	a4,a4,-1 # feffffff <__freertos_irq_stack_top+0x7eded6cf>
80005e38:	00e47433          	and	s0,s0,a4
80005e3c:	40058693          	add	a3,a1,1024
80005e40:	7fe00713          	li	a4,2046
80005e44:	2ed74a63          	blt	a4,a3,80006138 <__muldf3+0x5dc>
80005e48:	01d41713          	sll	a4,s0,0x1d
80005e4c:	0037d793          	srl	a5,a5,0x3
80005e50:	00f76733          	or	a4,a4,a5
80005e54:	00345413          	srl	s0,s0,0x3
80005e58:	00c41413          	sll	s0,s0,0xc
80005e5c:	00c45413          	srl	s0,s0,0xc
80005e60:	01469693          	sll	a3,a3,0x14
80005e64:	02c12083          	lw	ra,44(sp)
80005e68:	0086e6b3          	or	a3,a3,s0
80005e6c:	02812403          	lw	s0,40(sp)
80005e70:	01f61613          	sll	a2,a2,0x1f
80005e74:	00c6e7b3          	or	a5,a3,a2
80005e78:	02412483          	lw	s1,36(sp)
80005e7c:	02012903          	lw	s2,32(sp)
80005e80:	01c12983          	lw	s3,28(sp)
80005e84:	01812a03          	lw	s4,24(sp)
80005e88:	01412a83          	lw	s5,20(sp)
80005e8c:	01012b03          	lw	s6,16(sp)
80005e90:	00c12b83          	lw	s7,12(sp)
80005e94:	00070513          	mv	a0,a4
80005e98:	00078593          	mv	a1,a5
80005e9c:	03010113          	add	sp,sp,48
80005ea0:	00008067          	ret
80005ea4:	00a4e933          	or	s2,s1,a0
80005ea8:	08090063          	beqz	s2,80005f28 <__muldf3+0x3cc>
80005eac:	04048063          	beqz	s1,80005eec <__muldf3+0x390>
80005eb0:	00048513          	mv	a0,s1
80005eb4:	17c020ef          	jal	80008030 <__clzsi2>
80005eb8:	ff550713          	add	a4,a0,-11
80005ebc:	01d00793          	li	a5,29
80005ec0:	ff850693          	add	a3,a0,-8
80005ec4:	40e787b3          	sub	a5,a5,a4
80005ec8:	00d494b3          	sll	s1,s1,a3
80005ecc:	00f457b3          	srl	a5,s0,a5
80005ed0:	0097e7b3          	or	a5,a5,s1
80005ed4:	00d414b3          	sll	s1,s0,a3
80005ed8:	c0d00a93          	li	s5,-1011
80005edc:	00048913          	mv	s2,s1
80005ee0:	40aa8ab3          	sub	s5,s5,a0
80005ee4:	00078493          	mv	s1,a5
80005ee8:	ce5ff06f          	j	80005bcc <__muldf3+0x70>
80005eec:	144020ef          	jal	80008030 <__clzsi2>
80005ef0:	00050793          	mv	a5,a0
80005ef4:	01578713          	add	a4,a5,21
80005ef8:	01c00693          	li	a3,28
80005efc:	02050513          	add	a0,a0,32
80005f00:	fae6dee3          	bge	a3,a4,80005ebc <__muldf3+0x360>
80005f04:	ff878793          	add	a5,a5,-8
80005f08:	00f417b3          	sll	a5,s0,a5
80005f0c:	fcdff06f          	j	80005ed8 <__muldf3+0x37c>
80005f10:	00a4e933          	or	s2,s1,a0
80005f14:	02090263          	beqz	s2,80005f38 <__muldf3+0x3dc>
80005f18:	00050913          	mv	s2,a0
80005f1c:	7ff00a93          	li	s5,2047
80005f20:	00300b93          	li	s7,3
80005f24:	cadff06f          	j	80005bd0 <__muldf3+0x74>
80005f28:	00000493          	li	s1,0
80005f2c:	00000a93          	li	s5,0
80005f30:	00100b93          	li	s7,1
80005f34:	c9dff06f          	j	80005bd0 <__muldf3+0x74>
80005f38:	00000493          	li	s1,0
80005f3c:	7ff00a93          	li	s5,2047
80005f40:	00200b93          	li	s7,2
80005f44:	c8dff06f          	j	80005bd0 <__muldf3+0x74>
80005f48:	016467b3          	or	a5,s0,s6
80005f4c:	08078263          	beqz	a5,80005fd0 <__muldf3+0x474>
80005f50:	04040063          	beqz	s0,80005f90 <__muldf3+0x434>
80005f54:	00040513          	mv	a0,s0
80005f58:	0d8020ef          	jal	80008030 <__clzsi2>
80005f5c:	ff550693          	add	a3,a0,-11
80005f60:	01d00713          	li	a4,29
80005f64:	ff850793          	add	a5,a0,-8
80005f68:	40d70733          	sub	a4,a4,a3
80005f6c:	00f41433          	sll	s0,s0,a5
80005f70:	00eb5733          	srl	a4,s6,a4
80005f74:	00876733          	or	a4,a4,s0
80005f78:	00fb1433          	sll	s0,s6,a5
80005f7c:	c0d00693          	li	a3,-1011
80005f80:	00040793          	mv	a5,s0
80005f84:	40a686b3          	sub	a3,a3,a0
80005f88:	00070413          	mv	s0,a4
80005f8c:	c81ff06f          	j	80005c0c <__muldf3+0xb0>
80005f90:	000b0513          	mv	a0,s6
80005f94:	09c020ef          	jal	80008030 <__clzsi2>
80005f98:	00050793          	mv	a5,a0
80005f9c:	01578693          	add	a3,a5,21
80005fa0:	01c00713          	li	a4,28
80005fa4:	02050513          	add	a0,a0,32
80005fa8:	fad75ce3          	bge	a4,a3,80005f60 <__muldf3+0x404>
80005fac:	ff878793          	add	a5,a5,-8
80005fb0:	00fb1733          	sll	a4,s6,a5
80005fb4:	fc9ff06f          	j	80005f7c <__muldf3+0x420>
80005fb8:	016467b3          	or	a5,s0,s6
80005fbc:	02078263          	beqz	a5,80005fe0 <__muldf3+0x484>
80005fc0:	000b0793          	mv	a5,s6
80005fc4:	7ff00693          	li	a3,2047
80005fc8:	00300513          	li	a0,3
80005fcc:	c45ff06f          	j	80005c10 <__muldf3+0xb4>
80005fd0:	00000413          	li	s0,0
80005fd4:	00000693          	li	a3,0
80005fd8:	00100513          	li	a0,1
80005fdc:	c35ff06f          	j	80005c10 <__muldf3+0xb4>
80005fe0:	00000413          	li	s0,0
80005fe4:	7ff00693          	li	a3,2047
80005fe8:	00200513          	li	a0,2
80005fec:	c25ff06f          	j	80005c10 <__muldf3+0xb4>
80005ff0:	00100693          	li	a3,1
80005ff4:	00e696b3          	sll	a3,a3,a4
80005ff8:	5306f713          	and	a4,a3,1328
80005ffc:	04071863          	bnez	a4,8000604c <__muldf3+0x4f0>
80006000:	2406f813          	and	a6,a3,576
80006004:	10081c63          	bnez	a6,8000611c <__muldf3+0x5c0>
80006008:	0886f693          	and	a3,a3,136
8000600c:	c2068ae3          	beqz	a3,80005c40 <__muldf3+0xe4>
80006010:	00098613          	mv	a2,s3
80006014:	00200713          	li	a4,2
80006018:	12e50063          	beq	a0,a4,80006138 <__muldf3+0x5dc>
8000601c:	00300713          	li	a4,3
80006020:	10e50663          	beq	a0,a4,8000612c <__muldf3+0x5d0>
80006024:	00100713          	li	a4,1
80006028:	dce518e3          	bne	a0,a4,80005df8 <__muldf3+0x29c>
8000602c:	00000413          	li	s0,0
80006030:	00000713          	li	a4,0
80006034:	0ac0006f          	j	800060e0 <__muldf3+0x584>
80006038:	00f00693          	li	a3,15
8000603c:	0ed70863          	beq	a4,a3,8000612c <__muldf3+0x5d0>
80006040:	00b00693          	li	a3,11
80006044:	000a0613          	mv	a2,s4
80006048:	fcd704e3          	beq	a4,a3,80006010 <__muldf3+0x4b4>
8000604c:	00048413          	mv	s0,s1
80006050:	00090793          	mv	a5,s2
80006054:	000b8513          	mv	a0,s7
80006058:	fbdff06f          	j	80006014 <__muldf3+0x4b8>
8000605c:	000a8593          	mv	a1,s5
80006060:	d99ff06f          	j	80005df8 <__muldf3+0x29c>
80006064:	00100513          	li	a0,1
80006068:	00068c63          	beqz	a3,80006080 <__muldf3+0x524>
8000606c:	40d50533          	sub	a0,a0,a3
80006070:	03800713          	li	a4,56
80006074:	faa74ce3          	blt	a4,a0,8000602c <__muldf3+0x4d0>
80006078:	01f00713          	li	a4,31
8000607c:	06a74663          	blt	a4,a0,800060e8 <__muldf3+0x58c>
80006080:	41e58593          	add	a1,a1,1054
80006084:	00a7d733          	srl	a4,a5,a0
80006088:	00b797b3          	sll	a5,a5,a1
8000608c:	00f037b3          	snez	a5,a5
80006090:	00b415b3          	sll	a1,s0,a1
80006094:	00b7e7b3          	or	a5,a5,a1
80006098:	00e7e7b3          	or	a5,a5,a4
8000609c:	00a45433          	srl	s0,s0,a0
800060a0:	0077f713          	and	a4,a5,7
800060a4:	02070063          	beqz	a4,800060c4 <__muldf3+0x568>
800060a8:	00f7f713          	and	a4,a5,15
800060ac:	00400693          	li	a3,4
800060b0:	00d70a63          	beq	a4,a3,800060c4 <__muldf3+0x568>
800060b4:	00478713          	add	a4,a5,4
800060b8:	00f736b3          	sltu	a3,a4,a5
800060bc:	00d40433          	add	s0,s0,a3
800060c0:	00070793          	mv	a5,a4
800060c4:	00800737          	lui	a4,0x800
800060c8:	00e47733          	and	a4,s0,a4
800060cc:	06071e63          	bnez	a4,80006148 <__muldf3+0x5ec>
800060d0:	01d41713          	sll	a4,s0,0x1d
800060d4:	0037d793          	srl	a5,a5,0x3
800060d8:	00f76733          	or	a4,a4,a5
800060dc:	00345413          	srl	s0,s0,0x3
800060e0:	00000693          	li	a3,0
800060e4:	d75ff06f          	j	80005e58 <__muldf3+0x2fc>
800060e8:	fe100713          	li	a4,-31
800060ec:	40d70733          	sub	a4,a4,a3
800060f0:	02000813          	li	a6,32
800060f4:	00e45733          	srl	a4,s0,a4
800060f8:	00000693          	li	a3,0
800060fc:	01050663          	beq	a0,a6,80006108 <__muldf3+0x5ac>
80006100:	43e58593          	add	a1,a1,1086
80006104:	00b416b3          	sll	a3,s0,a1
80006108:	00f6e6b3          	or	a3,a3,a5
8000610c:	00d036b3          	snez	a3,a3
80006110:	00d767b3          	or	a5,a4,a3
80006114:	00000413          	li	s0,0
80006118:	f89ff06f          	j	800060a0 <__muldf3+0x544>
8000611c:	00080437          	lui	s0,0x80
80006120:	7ff00693          	li	a3,2047
80006124:	00000613          	li	a2,0
80006128:	d31ff06f          	j	80005e58 <__muldf3+0x2fc>
8000612c:	00080437          	lui	s0,0x80
80006130:	00000713          	li	a4,0
80006134:	fedff06f          	j	80006120 <__muldf3+0x5c4>
80006138:	00000413          	li	s0,0
8000613c:	00000713          	li	a4,0
80006140:	7ff00693          	li	a3,2047
80006144:	d15ff06f          	j	80005e58 <__muldf3+0x2fc>
80006148:	00000413          	li	s0,0
8000614c:	00000713          	li	a4,0
80006150:	00100693          	li	a3,1
80006154:	d05ff06f          	j	80005e58 <__muldf3+0x2fc>

80006158 <__subdf3>:
80006158:	00100837          	lui	a6,0x100
8000615c:	fff80813          	add	a6,a6,-1 # fffff <__stack_size+0xff7ff>
80006160:	fe010113          	add	sp,sp,-32
80006164:	00b878b3          	and	a7,a6,a1
80006168:	0145d713          	srl	a4,a1,0x14
8000616c:	01d55793          	srl	a5,a0,0x1d
80006170:	00812c23          	sw	s0,24(sp)
80006174:	00912a23          	sw	s1,20(sp)
80006178:	7ff77413          	and	s0,a4,2047
8000617c:	01f5d493          	srl	s1,a1,0x1f
80006180:	00389713          	sll	a4,a7,0x3
80006184:	00d875b3          	and	a1,a6,a3
80006188:	0146d813          	srl	a6,a3,0x14
8000618c:	00e7e7b3          	or	a5,a5,a4
80006190:	00359593          	sll	a1,a1,0x3
80006194:	01d65713          	srl	a4,a2,0x1d
80006198:	00112e23          	sw	ra,28(sp)
8000619c:	01212823          	sw	s2,16(sp)
800061a0:	01312623          	sw	s3,12(sp)
800061a4:	7ff87813          	and	a6,a6,2047
800061a8:	7ff00893          	li	a7,2047
800061ac:	00351513          	sll	a0,a0,0x3
800061b0:	01f6d693          	srl	a3,a3,0x1f
800061b4:	00b76733          	or	a4,a4,a1
800061b8:	00361613          	sll	a2,a2,0x3
800061bc:	07181c63          	bne	a6,a7,80006234 <__subdf3+0xdc>
800061c0:	00c768b3          	or	a7,a4,a2
800061c4:	80140593          	add	a1,s0,-2047 # 7f801 <__stack_size+0x7f001>
800061c8:	00088e63          	beqz	a7,800061e4 <__subdf3+0x8c>
800061cc:	00068313          	mv	t1,a3
800061d0:	42d49a63          	bne	s1,a3,80006604 <__subdf3+0x4ac>
800061d4:	26058863          	beqz	a1,80006444 <__subdf3+0x2ec>
800061d8:	76041a63          	bnez	s0,8000694c <__subdf3+0x7f4>
800061dc:	7ff00413          	li	s0,2047
800061e0:	1f80006f          	j	800063d8 <__subdf3+0x280>
800061e4:	0016c313          	xor	t1,a3,1
800061e8:	42649c63          	bne	s1,t1,80006620 <__subdf3+0x4c8>
800061ec:	24058c63          	beqz	a1,80006444 <__subdf3+0x2ec>
800061f0:	fe0406e3          	beqz	s0,800061dc <__subdf3+0x84>
800061f4:	00000793          	li	a5,0
800061f8:	00000513          	li	a0,0
800061fc:	7ff00413          	li	s0,2047
80006200:	008006b7          	lui	a3,0x800
80006204:	00d7f6b3          	and	a3,a5,a3
80006208:	74068c63          	beqz	a3,80006960 <__subdf3+0x808>
8000620c:	00140413          	add	s0,s0,1
80006210:	7ff00713          	li	a4,2047
80006214:	10e40663          	beq	s0,a4,80006320 <__subdf3+0x1c8>
80006218:	ff800737          	lui	a4,0xff800
8000621c:	fff70713          	add	a4,a4,-1 # ff7fffff <__freertos_irq_stack_top+0x7f5ed6cf>
80006220:	00e7f7b3          	and	a5,a5,a4
80006224:	00355513          	srl	a0,a0,0x3
80006228:	01d79693          	sll	a3,a5,0x1d
8000622c:	00a6e6b3          	or	a3,a3,a0
80006230:	6bc0006f          	j	800068ec <__subdf3+0x794>
80006234:	0016c313          	xor	t1,a3,1
80006238:	410405b3          	sub	a1,s0,a6
8000623c:	2c649a63          	bne	s1,t1,80006510 <__subdf3+0x3b8>
80006240:	12b05863          	blez	a1,80006370 <__subdf3+0x218>
80006244:	06081663          	bnez	a6,800062b0 <__subdf3+0x158>
80006248:	00c766b3          	or	a3,a4,a2
8000624c:	70068663          	beqz	a3,80006958 <__subdf3+0x800>
80006250:	fff58693          	add	a3,a1,-1
80006254:	04069863          	bnez	a3,800062a4 <__subdf3+0x14c>
80006258:	00c50633          	add	a2,a0,a2
8000625c:	00a636b3          	sltu	a3,a2,a0
80006260:	00e78733          	add	a4,a5,a4
80006264:	00d707b3          	add	a5,a4,a3
80006268:	00800737          	lui	a4,0x800
8000626c:	00e7f733          	and	a4,a5,a4
80006270:	00060513          	mv	a0,a2
80006274:	26071863          	bnez	a4,800064e4 <__subdf3+0x38c>
80006278:	00100413          	li	s0,1
8000627c:	00757713          	and	a4,a0,7
80006280:	f80700e3          	beqz	a4,80006200 <__subdf3+0xa8>
80006284:	00f57713          	and	a4,a0,15
80006288:	00400693          	li	a3,4
8000628c:	f6d70ae3          	beq	a4,a3,80006200 <__subdf3+0xa8>
80006290:	00450713          	add	a4,a0,4
80006294:	00a736b3          	sltu	a3,a4,a0
80006298:	00d787b3          	add	a5,a5,a3
8000629c:	00070513          	mv	a0,a4
800062a0:	f61ff06f          	j	80006200 <__subdf3+0xa8>
800062a4:	09159263          	bne	a1,a7,80006328 <__subdf3+0x1d0>
800062a8:	7ff00413          	li	s0,2047
800062ac:	fd1ff06f          	j	8000627c <__subdf3+0x124>
800062b0:	fd1406e3          	beq	s0,a7,8000627c <__subdf3+0x124>
800062b4:	03800693          	li	a3,56
800062b8:	06b6cc63          	blt	a3,a1,80006330 <__subdf3+0x1d8>
800062bc:	008006b7          	lui	a3,0x800
800062c0:	00d76733          	or	a4,a4,a3
800062c4:	00058693          	mv	a3,a1
800062c8:	01f00593          	li	a1,31
800062cc:	06d5c863          	blt	a1,a3,8000633c <__subdf3+0x1e4>
800062d0:	02000813          	li	a6,32
800062d4:	40d80833          	sub	a6,a6,a3
800062d8:	00d658b3          	srl	a7,a2,a3
800062dc:	010715b3          	sll	a1,a4,a6
800062e0:	01061833          	sll	a6,a2,a6
800062e4:	0115e5b3          	or	a1,a1,a7
800062e8:	01003833          	snez	a6,a6
800062ec:	0105e633          	or	a2,a1,a6
800062f0:	00d756b3          	srl	a3,a4,a3
800062f4:	00a60533          	add	a0,a2,a0
800062f8:	00f686b3          	add	a3,a3,a5
800062fc:	00c53633          	sltu	a2,a0,a2
80006300:	00c687b3          	add	a5,a3,a2
80006304:	00800737          	lui	a4,0x800
80006308:	00e7f733          	and	a4,a5,a4
8000630c:	f60708e3          	beqz	a4,8000627c <__subdf3+0x124>
80006310:	00140413          	add	s0,s0,1
80006314:	7ff00713          	li	a4,2047
80006318:	1ce41863          	bne	s0,a4,800064e8 <__subdf3+0x390>
8000631c:	7ff00413          	li	s0,2047
80006320:	00000793          	li	a5,0
80006324:	1880006f          	j	800064ac <__subdf3+0x354>
80006328:	03800593          	li	a1,56
8000632c:	f8d5dee3          	bge	a1,a3,800062c8 <__subdf3+0x170>
80006330:	00000693          	li	a3,0
80006334:	00100613          	li	a2,1
80006338:	fbdff06f          	j	800062f4 <__subdf3+0x19c>
8000633c:	fe068593          	add	a1,a3,-32 # 7fffe0 <__heap_size+0x5fffe0>
80006340:	02000893          	li	a7,32
80006344:	00b755b3          	srl	a1,a4,a1
80006348:	00000813          	li	a6,0
8000634c:	01168863          	beq	a3,a7,8000635c <__subdf3+0x204>
80006350:	04000813          	li	a6,64
80006354:	40d80833          	sub	a6,a6,a3
80006358:	01071833          	sll	a6,a4,a6
8000635c:	00c86833          	or	a6,a6,a2
80006360:	01003833          	snez	a6,a6
80006364:	0105e633          	or	a2,a1,a6
80006368:	00000693          	li	a3,0
8000636c:	f89ff06f          	j	800062f4 <__subdf3+0x19c>
80006370:	0c058a63          	beqz	a1,80006444 <__subdf3+0x2ec>
80006374:	408806b3          	sub	a3,a6,s0
80006378:	04040e63          	beqz	s0,800063d4 <__subdf3+0x27c>
8000637c:	03800593          	li	a1,56
80006380:	08d5c263          	blt	a1,a3,80006404 <__subdf3+0x2ac>
80006384:	008005b7          	lui	a1,0x800
80006388:	00b7e7b3          	or	a5,a5,a1
8000638c:	01f00593          	li	a1,31
80006390:	08d5c063          	blt	a1,a3,80006410 <__subdf3+0x2b8>
80006394:	02000893          	li	a7,32
80006398:	40d888b3          	sub	a7,a7,a3
8000639c:	011795b3          	sll	a1,a5,a7
800063a0:	00d55333          	srl	t1,a0,a3
800063a4:	011518b3          	sll	a7,a0,a7
800063a8:	0065e5b3          	or	a1,a1,t1
800063ac:	011038b3          	snez	a7,a7
800063b0:	0115e5b3          	or	a1,a1,a7
800063b4:	00d7d6b3          	srl	a3,a5,a3
800063b8:	00c58633          	add	a2,a1,a2
800063bc:	00e686b3          	add	a3,a3,a4
800063c0:	00b635b3          	sltu	a1,a2,a1
800063c4:	00060513          	mv	a0,a2
800063c8:	00b687b3          	add	a5,a3,a1
800063cc:	00080413          	mv	s0,a6
800063d0:	f35ff06f          	j	80006304 <__subdf3+0x1ac>
800063d4:	00068413          	mv	s0,a3
800063d8:	00a7e6b3          	or	a3,a5,a0
800063dc:	00068a63          	beqz	a3,800063f0 <__subdf3+0x298>
800063e0:	fff40693          	add	a3,s0,-1
800063e4:	e6068ae3          	beqz	a3,80006258 <__subdf3+0x100>
800063e8:	7ff00593          	li	a1,2047
800063ec:	00b41863          	bne	s0,a1,800063fc <__subdf3+0x2a4>
800063f0:	00070793          	mv	a5,a4
800063f4:	00060513          	mv	a0,a2
800063f8:	e85ff06f          	j	8000627c <__subdf3+0x124>
800063fc:	03800593          	li	a1,56
80006400:	f8d5d6e3          	bge	a1,a3,8000638c <__subdf3+0x234>
80006404:	00000693          	li	a3,0
80006408:	00100593          	li	a1,1
8000640c:	fadff06f          	j	800063b8 <__subdf3+0x260>
80006410:	fe068593          	add	a1,a3,-32
80006414:	02000313          	li	t1,32
80006418:	00b7d5b3          	srl	a1,a5,a1
8000641c:	00000893          	li	a7,0
80006420:	00668863          	beq	a3,t1,80006430 <__subdf3+0x2d8>
80006424:	04000893          	li	a7,64
80006428:	40d888b3          	sub	a7,a7,a3
8000642c:	011798b3          	sll	a7,a5,a7
80006430:	00a8e8b3          	or	a7,a7,a0
80006434:	011038b3          	snez	a7,a7
80006438:	0115e5b3          	or	a1,a1,a7
8000643c:	00000693          	li	a3,0
80006440:	f79ff06f          	j	800063b8 <__subdf3+0x260>
80006444:	00140693          	add	a3,s0,1
80006448:	7fe6f593          	and	a1,a3,2046
8000644c:	06059463          	bnez	a1,800064b4 <__subdf3+0x35c>
80006450:	00a7e6b3          	or	a3,a5,a0
80006454:	04041063          	bnez	s0,80006494 <__subdf3+0x33c>
80006458:	f8068ce3          	beqz	a3,800063f0 <__subdf3+0x298>
8000645c:	00c766b3          	or	a3,a4,a2
80006460:	e0068ee3          	beqz	a3,8000627c <__subdf3+0x124>
80006464:	00c50633          	add	a2,a0,a2
80006468:	00a636b3          	sltu	a3,a2,a0
8000646c:	00e78733          	add	a4,a5,a4
80006470:	00d707b3          	add	a5,a4,a3
80006474:	00800737          	lui	a4,0x800
80006478:	00e7f733          	and	a4,a5,a4
8000647c:	00060513          	mv	a0,a2
80006480:	de070ee3          	beqz	a4,8000627c <__subdf3+0x124>
80006484:	ff800737          	lui	a4,0xff800
80006488:	fff70713          	add	a4,a4,-1 # ff7fffff <__freertos_irq_stack_top+0x7f5ed6cf>
8000648c:	00e7f7b3          	and	a5,a5,a4
80006490:	de9ff06f          	j	80006278 <__subdf3+0x120>
80006494:	4a068c63          	beqz	a3,8000694c <__subdf3+0x7f4>
80006498:	00c76633          	or	a2,a4,a2
8000649c:	e00606e3          	beqz	a2,800062a8 <__subdf3+0x150>
800064a0:	00000493          	li	s1,0
800064a4:	7ff00413          	li	s0,2047
800064a8:	000807b7          	lui	a5,0x80
800064ac:	00000693          	li	a3,0
800064b0:	4400006f          	j	800068f0 <__subdf3+0x798>
800064b4:	7ff00593          	li	a1,2047
800064b8:	e6b682e3          	beq	a3,a1,8000631c <__subdf3+0x1c4>
800064bc:	00c50633          	add	a2,a0,a2
800064c0:	00a63533          	sltu	a0,a2,a0
800064c4:	00e78733          	add	a4,a5,a4
800064c8:	00a70733          	add	a4,a4,a0
800064cc:	01f71513          	sll	a0,a4,0x1f
800064d0:	00165613          	srl	a2,a2,0x1
800064d4:	00c56533          	or	a0,a0,a2
800064d8:	00175793          	srl	a5,a4,0x1
800064dc:	00068413          	mv	s0,a3
800064e0:	d9dff06f          	j	8000627c <__subdf3+0x124>
800064e4:	00200413          	li	s0,2
800064e8:	ff800737          	lui	a4,0xff800
800064ec:	fff70713          	add	a4,a4,-1 # ff7fffff <__freertos_irq_stack_top+0x7f5ed6cf>
800064f0:	00e7f7b3          	and	a5,a5,a4
800064f4:	00155713          	srl	a4,a0,0x1
800064f8:	00157513          	and	a0,a0,1
800064fc:	00a76733          	or	a4,a4,a0
80006500:	01f79513          	sll	a0,a5,0x1f
80006504:	00e56533          	or	a0,a0,a4
80006508:	0017d793          	srl	a5,a5,0x1
8000650c:	d71ff06f          	j	8000627c <__subdf3+0x124>
80006510:	12b05663          	blez	a1,8000663c <__subdf3+0x4e4>
80006514:	04081463          	bnez	a6,8000655c <__subdf3+0x404>
80006518:	00c766b3          	or	a3,a4,a2
8000651c:	42068e63          	beqz	a3,80006958 <__subdf3+0x800>
80006520:	fff58693          	add	a3,a1,-1 # 7fffff <__heap_size+0x5fffff>
80006524:	02069063          	bnez	a3,80006544 <__subdf3+0x3ec>
80006528:	40c50633          	sub	a2,a0,a2
8000652c:	00c536b3          	sltu	a3,a0,a2
80006530:	40e78733          	sub	a4,a5,a4
80006534:	00060513          	mv	a0,a2
80006538:	40d707b3          	sub	a5,a4,a3
8000653c:	00100413          	li	s0,1
80006540:	0740006f          	j	800065b4 <__subdf3+0x45c>
80006544:	d71582e3          	beq	a1,a7,800062a8 <__subdf3+0x150>
80006548:	03800593          	li	a1,56
8000654c:	02d5d463          	bge	a1,a3,80006574 <__subdf3+0x41c>
80006550:	00000693          	li	a3,0
80006554:	00100613          	li	a2,1
80006558:	0480006f          	j	800065a0 <__subdf3+0x448>
8000655c:	d31400e3          	beq	s0,a7,8000627c <__subdf3+0x124>
80006560:	03800693          	li	a3,56
80006564:	feb6c6e3          	blt	a3,a1,80006550 <__subdf3+0x3f8>
80006568:	008006b7          	lui	a3,0x800
8000656c:	00d76733          	or	a4,a4,a3
80006570:	00058693          	mv	a3,a1
80006574:	01f00593          	li	a1,31
80006578:	04d5cc63          	blt	a1,a3,800065d0 <__subdf3+0x478>
8000657c:	02000813          	li	a6,32
80006580:	40d80833          	sub	a6,a6,a3
80006584:	00d658b3          	srl	a7,a2,a3
80006588:	010715b3          	sll	a1,a4,a6
8000658c:	01061833          	sll	a6,a2,a6
80006590:	0115e5b3          	or	a1,a1,a7
80006594:	01003833          	snez	a6,a6
80006598:	0105e633          	or	a2,a1,a6
8000659c:	00d756b3          	srl	a3,a4,a3
800065a0:	40c50633          	sub	a2,a0,a2
800065a4:	00c53733          	sltu	a4,a0,a2
800065a8:	40d786b3          	sub	a3,a5,a3
800065ac:	00060513          	mv	a0,a2
800065b0:	40e687b3          	sub	a5,a3,a4
800065b4:	00800737          	lui	a4,0x800
800065b8:	00e7f6b3          	and	a3,a5,a4
800065bc:	cc0680e3          	beqz	a3,8000627c <__subdf3+0x124>
800065c0:	fff70713          	add	a4,a4,-1 # 7fffff <__heap_size+0x5fffff>
800065c4:	00e7f9b3          	and	s3,a5,a4
800065c8:	00050913          	mv	s2,a0
800065cc:	23c0006f          	j	80006808 <__subdf3+0x6b0>
800065d0:	fe068593          	add	a1,a3,-32 # 7fffe0 <__heap_size+0x5fffe0>
800065d4:	02000893          	li	a7,32
800065d8:	00b755b3          	srl	a1,a4,a1
800065dc:	00000813          	li	a6,0
800065e0:	01168863          	beq	a3,a7,800065f0 <__subdf3+0x498>
800065e4:	04000813          	li	a6,64
800065e8:	40d80833          	sub	a6,a6,a3
800065ec:	01071833          	sll	a6,a4,a6
800065f0:	00c86833          	or	a6,a6,a2
800065f4:	01003833          	snez	a6,a6
800065f8:	0105e633          	or	a2,a1,a6
800065fc:	00000693          	li	a3,0
80006600:	fa1ff06f          	j	800065a0 <__subdf3+0x448>
80006604:	12058c63          	beqz	a1,8000673c <__subdf3+0x5e4>
80006608:	06040663          	beqz	s0,80006674 <__subdf3+0x51c>
8000660c:	00070793          	mv	a5,a4
80006610:	00060513          	mv	a0,a2
80006614:	7ff00413          	li	s0,2047
80006618:	00068493          	mv	s1,a3
8000661c:	c61ff06f          	j	8000627c <__subdf3+0x124>
80006620:	10058e63          	beqz	a1,8000673c <__subdf3+0x5e4>
80006624:	04040e63          	beqz	s0,80006680 <__subdf3+0x528>
80006628:	00000793          	li	a5,0
8000662c:	00000513          	li	a0,0
80006630:	7ff00413          	li	s0,2047
80006634:	00030493          	mv	s1,t1
80006638:	bc9ff06f          	j	80006200 <__subdf3+0xa8>
8000663c:	10058063          	beqz	a1,8000673c <__subdf3+0x5e4>
80006640:	408806b3          	sub	a3,a6,s0
80006644:	06041063          	bnez	s0,800066a4 <__subdf3+0x54c>
80006648:	00030493          	mv	s1,t1
8000664c:	00068413          	mv	s0,a3
80006650:	00a7e6b3          	or	a3,a5,a0
80006654:	d8068ee3          	beqz	a3,800063f0 <__subdf3+0x298>
80006658:	fff40693          	add	a3,s0,-1
8000665c:	02069663          	bnez	a3,80006688 <__subdf3+0x530>
80006660:	40a60533          	sub	a0,a2,a0
80006664:	40f70733          	sub	a4,a4,a5
80006668:	00a63633          	sltu	a2,a2,a0
8000666c:	40c707b3          	sub	a5,a4,a2
80006670:	ecdff06f          	j	8000653c <__subdf3+0x3e4>
80006674:	00068493          	mv	s1,a3
80006678:	7ff00413          	li	s0,2047
8000667c:	fd5ff06f          	j	80006650 <__subdf3+0x4f8>
80006680:	00030493          	mv	s1,t1
80006684:	ff5ff06f          	j	80006678 <__subdf3+0x520>
80006688:	7ff00593          	li	a1,2047
8000668c:	d6b402e3          	beq	s0,a1,800063f0 <__subdf3+0x298>
80006690:	03800593          	li	a1,56
80006694:	02d5d263          	bge	a1,a3,800066b8 <__subdf3+0x560>
80006698:	00000693          	li	a3,0
8000669c:	00100593          	li	a1,1
800066a0:	0440006f          	j	800066e4 <__subdf3+0x58c>
800066a4:	03800593          	li	a1,56
800066a8:	08d5c663          	blt	a1,a3,80006734 <__subdf3+0x5dc>
800066ac:	008005b7          	lui	a1,0x800
800066b0:	00b7e7b3          	or	a5,a5,a1
800066b4:	00030493          	mv	s1,t1
800066b8:	01f00593          	li	a1,31
800066bc:	04d5c263          	blt	a1,a3,80006700 <__subdf3+0x5a8>
800066c0:	02000893          	li	a7,32
800066c4:	40d888b3          	sub	a7,a7,a3
800066c8:	011795b3          	sll	a1,a5,a7
800066cc:	00d55333          	srl	t1,a0,a3
800066d0:	011518b3          	sll	a7,a0,a7
800066d4:	0065e5b3          	or	a1,a1,t1
800066d8:	011038b3          	snez	a7,a7
800066dc:	0115e5b3          	or	a1,a1,a7
800066e0:	00d7d6b3          	srl	a3,a5,a3
800066e4:	40b605b3          	sub	a1,a2,a1
800066e8:	40d706b3          	sub	a3,a4,a3
800066ec:	00b63633          	sltu	a2,a2,a1
800066f0:	00058513          	mv	a0,a1
800066f4:	40c687b3          	sub	a5,a3,a2
800066f8:	00080413          	mv	s0,a6
800066fc:	eb9ff06f          	j	800065b4 <__subdf3+0x45c>
80006700:	fe068593          	add	a1,a3,-32
80006704:	02000313          	li	t1,32
80006708:	00b7d5b3          	srl	a1,a5,a1
8000670c:	00000893          	li	a7,0
80006710:	00668863          	beq	a3,t1,80006720 <__subdf3+0x5c8>
80006714:	04000893          	li	a7,64
80006718:	40d888b3          	sub	a7,a7,a3
8000671c:	011798b3          	sll	a7,a5,a7
80006720:	00a8e8b3          	or	a7,a7,a0
80006724:	011038b3          	snez	a7,a7
80006728:	0115e5b3          	or	a1,a1,a7
8000672c:	00000693          	li	a3,0
80006730:	fb5ff06f          	j	800066e4 <__subdf3+0x58c>
80006734:	00030493          	mv	s1,t1
80006738:	f61ff06f          	j	80006698 <__subdf3+0x540>
8000673c:	00140693          	add	a3,s0,1
80006740:	7fe6f693          	and	a3,a3,2046
80006744:	08069863          	bnez	a3,800067d4 <__subdf3+0x67c>
80006748:	00c766b3          	or	a3,a4,a2
8000674c:	00a7e5b3          	or	a1,a5,a0
80006750:	06041263          	bnez	s0,800067b4 <__subdf3+0x65c>
80006754:	00059c63          	bnez	a1,8000676c <__subdf3+0x614>
80006758:	22068a63          	beqz	a3,8000698c <__subdf3+0x834>
8000675c:	00070793          	mv	a5,a4
80006760:	00060513          	mv	a0,a2
80006764:	00030493          	mv	s1,t1
80006768:	b15ff06f          	j	8000627c <__subdf3+0x124>
8000676c:	b00688e3          	beqz	a3,8000627c <__subdf3+0x124>
80006770:	40c50833          	sub	a6,a0,a2
80006774:	010536b3          	sltu	a3,a0,a6
80006778:	40e785b3          	sub	a1,a5,a4
8000677c:	40d585b3          	sub	a1,a1,a3
80006780:	008006b7          	lui	a3,0x800
80006784:	00d5f6b3          	and	a3,a1,a3
80006788:	00068c63          	beqz	a3,800067a0 <__subdf3+0x648>
8000678c:	40a60533          	sub	a0,a2,a0
80006790:	40f70733          	sub	a4,a4,a5
80006794:	00a63633          	sltu	a2,a2,a0
80006798:	40c707b3          	sub	a5,a4,a2
8000679c:	fc9ff06f          	j	80006764 <__subdf3+0x60c>
800067a0:	00b866b3          	or	a3,a6,a1
800067a4:	1e068463          	beqz	a3,8000698c <__subdf3+0x834>
800067a8:	00058793          	mv	a5,a1
800067ac:	00080513          	mv	a0,a6
800067b0:	acdff06f          	j	8000627c <__subdf3+0x124>
800067b4:	00059c63          	bnez	a1,800067cc <__subdf3+0x674>
800067b8:	1c068e63          	beqz	a3,80006994 <__subdf3+0x83c>
800067bc:	00070793          	mv	a5,a4
800067c0:	00060513          	mv	a0,a2
800067c4:	00030493          	mv	s1,t1
800067c8:	ae1ff06f          	j	800062a8 <__subdf3+0x150>
800067cc:	ac068ee3          	beqz	a3,800062a8 <__subdf3+0x150>
800067d0:	cd1ff06f          	j	800064a0 <__subdf3+0x348>
800067d4:	40c506b3          	sub	a3,a0,a2
800067d8:	00d535b3          	sltu	a1,a0,a3
800067dc:	40e789b3          	sub	s3,a5,a4
800067e0:	40b989b3          	sub	s3,s3,a1
800067e4:	008005b7          	lui	a1,0x800
800067e8:	00b9f5b3          	and	a1,s3,a1
800067ec:	00068913          	mv	s2,a3
800067f0:	06058c63          	beqz	a1,80006868 <__subdf3+0x710>
800067f4:	40a60933          	sub	s2,a2,a0
800067f8:	40f70733          	sub	a4,a4,a5
800067fc:	01263633          	sltu	a2,a2,s2
80006800:	40c709b3          	sub	s3,a4,a2
80006804:	00030493          	mv	s1,t1
80006808:	06098a63          	beqz	s3,8000687c <__subdf3+0x724>
8000680c:	00098513          	mv	a0,s3
80006810:	021010ef          	jal	80008030 <__clzsi2>
80006814:	ff850793          	add	a5,a0,-8
80006818:	02000693          	li	a3,32
8000681c:	40f686b3          	sub	a3,a3,a5
80006820:	00f99733          	sll	a4,s3,a5
80006824:	00d956b3          	srl	a3,s2,a3
80006828:	00e6e6b3          	or	a3,a3,a4
8000682c:	00f919b3          	sll	s3,s2,a5
80006830:	1087c263          	blt	a5,s0,80006934 <__subdf3+0x7dc>
80006834:	408787b3          	sub	a5,a5,s0
80006838:	00178793          	add	a5,a5,1 # 80001 <__stack_size+0x7f801>
8000683c:	02000713          	li	a4,32
80006840:	40f70733          	sub	a4,a4,a5
80006844:	00e69533          	sll	a0,a3,a4
80006848:	00f9d633          	srl	a2,s3,a5
8000684c:	00e99733          	sll	a4,s3,a4
80006850:	00c56533          	or	a0,a0,a2
80006854:	00e03733          	snez	a4,a4
80006858:	00e56533          	or	a0,a0,a4
8000685c:	00f6d7b3          	srl	a5,a3,a5
80006860:	00000413          	li	s0,0
80006864:	a19ff06f          	j	8000627c <__subdf3+0x124>
80006868:	0136e6b3          	or	a3,a3,s3
8000686c:	f8069ee3          	bnez	a3,80006808 <__subdf3+0x6b0>
80006870:	00000793          	li	a5,0
80006874:	00000413          	li	s0,0
80006878:	10c0006f          	j	80006984 <__subdf3+0x82c>
8000687c:	00090513          	mv	a0,s2
80006880:	7b0010ef          	jal	80008030 <__clzsi2>
80006884:	01850793          	add	a5,a0,24
80006888:	01f00713          	li	a4,31
8000688c:	f8f756e3          	bge	a4,a5,80006818 <__subdf3+0x6c0>
80006890:	ff850513          	add	a0,a0,-8
80006894:	00a916b3          	sll	a3,s2,a0
80006898:	0487c063          	blt	a5,s0,800068d8 <__subdf3+0x780>
8000689c:	40878533          	sub	a0,a5,s0
800068a0:	00150793          	add	a5,a0,1
800068a4:	f8f75ce3          	bge	a4,a5,8000683c <__subdf3+0x6e4>
800068a8:	fe150513          	add	a0,a0,-31
800068ac:	02000613          	li	a2,32
800068b0:	00a6d733          	srl	a4,a3,a0
800068b4:	00000513          	li	a0,0
800068b8:	00c78863          	beq	a5,a2,800068c8 <__subdf3+0x770>
800068bc:	04000513          	li	a0,64
800068c0:	40f50533          	sub	a0,a0,a5
800068c4:	00a69533          	sll	a0,a3,a0
800068c8:	00a03533          	snez	a0,a0
800068cc:	00e56533          	or	a0,a0,a4
800068d0:	00000793          	li	a5,0
800068d4:	f8dff06f          	j	80006860 <__subdf3+0x708>
800068d8:	40f40433          	sub	s0,s0,a5
800068dc:	ff8007b7          	lui	a5,0xff800
800068e0:	fff78793          	add	a5,a5,-1 # ff7fffff <__freertos_irq_stack_top+0x7f5ed6cf>
800068e4:	00f6f7b3          	and	a5,a3,a5
800068e8:	01d79693          	sll	a3,a5,0x1d
800068ec:	0037d793          	srl	a5,a5,0x3
800068f0:	01441713          	sll	a4,s0,0x14
800068f4:	7ff00637          	lui	a2,0x7ff00
800068f8:	00c79793          	sll	a5,a5,0xc
800068fc:	01c12083          	lw	ra,28(sp)
80006900:	01812403          	lw	s0,24(sp)
80006904:	00c77733          	and	a4,a4,a2
80006908:	00c7d793          	srl	a5,a5,0xc
8000690c:	01f49493          	sll	s1,s1,0x1f
80006910:	00f767b3          	or	a5,a4,a5
80006914:	0097e733          	or	a4,a5,s1
80006918:	01012903          	lw	s2,16(sp)
8000691c:	01412483          	lw	s1,20(sp)
80006920:	00c12983          	lw	s3,12(sp)
80006924:	00068513          	mv	a0,a3
80006928:	00070593          	mv	a1,a4
8000692c:	02010113          	add	sp,sp,32
80006930:	00008067          	ret
80006934:	40f40433          	sub	s0,s0,a5
80006938:	ff8007b7          	lui	a5,0xff800
8000693c:	fff78793          	add	a5,a5,-1 # ff7fffff <__freertos_irq_stack_top+0x7f5ed6cf>
80006940:	00f6f7b3          	and	a5,a3,a5
80006944:	00098513          	mv	a0,s3
80006948:	935ff06f          	j	8000627c <__subdf3+0x124>
8000694c:	00070793          	mv	a5,a4
80006950:	00060513          	mv	a0,a2
80006954:	955ff06f          	j	800062a8 <__subdf3+0x150>
80006958:	00058413          	mv	s0,a1
8000695c:	921ff06f          	j	8000627c <__subdf3+0x124>
80006960:	01d79713          	sll	a4,a5,0x1d
80006964:	00355513          	srl	a0,a0,0x3
80006968:	7ff00613          	li	a2,2047
8000696c:	00a76733          	or	a4,a4,a0
80006970:	0037d793          	srl	a5,a5,0x3
80006974:	02c41863          	bne	s0,a2,800069a4 <__subdf3+0x84c>
80006978:	00f76733          	or	a4,a4,a5
8000697c:	000807b7          	lui	a5,0x80
80006980:	98070ee3          	beqz	a4,8000631c <__subdf3+0x1c4>
80006984:	00000493          	li	s1,0
80006988:	f69ff06f          	j	800068f0 <__subdf3+0x798>
8000698c:	00000793          	li	a5,0
80006990:	ff5ff06f          	j	80006984 <__subdf3+0x82c>
80006994:	00000493          	li	s1,0
80006998:	7ff00413          	li	s0,2047
8000699c:	000807b7          	lui	a5,0x80
800069a0:	f51ff06f          	j	800068f0 <__subdf3+0x798>
800069a4:	00070693          	mv	a3,a4
800069a8:	f49ff06f          	j	800068f0 <__subdf3+0x798>

800069ac <__fixdfsi>:
800069ac:	0145d713          	srl	a4,a1,0x14
800069b0:	001006b7          	lui	a3,0x100
800069b4:	fff68793          	add	a5,a3,-1 # fffff <__stack_size+0xff7ff>
800069b8:	7ff77713          	and	a4,a4,2047
800069bc:	3fe00613          	li	a2,1022
800069c0:	00b7f7b3          	and	a5,a5,a1
800069c4:	01f5d593          	srl	a1,a1,0x1f
800069c8:	04e65e63          	bge	a2,a4,80006a24 <__fixdfsi+0x78>
800069cc:	41d00613          	li	a2,1053
800069d0:	00e65a63          	bge	a2,a4,800069e4 <__fixdfsi+0x38>
800069d4:	80000537          	lui	a0,0x80000
800069d8:	fff54513          	not	a0,a0
800069dc:	00a58533          	add	a0,a1,a0
800069e0:	00008067          	ret
800069e4:	00d7e7b3          	or	a5,a5,a3
800069e8:	43300693          	li	a3,1075
800069ec:	40e686b3          	sub	a3,a3,a4
800069f0:	01f00613          	li	a2,31
800069f4:	02d64063          	blt	a2,a3,80006a14 <__fixdfsi+0x68>
800069f8:	bed70713          	add	a4,a4,-1043
800069fc:	00e797b3          	sll	a5,a5,a4
80006a00:	00d55533          	srl	a0,a0,a3
80006a04:	00a7e533          	or	a0,a5,a0
80006a08:	02058063          	beqz	a1,80006a28 <__fixdfsi+0x7c>
80006a0c:	40a00533          	neg	a0,a0
80006a10:	00008067          	ret
80006a14:	41300693          	li	a3,1043
80006a18:	40e68733          	sub	a4,a3,a4
80006a1c:	00e7d533          	srl	a0,a5,a4
80006a20:	fe9ff06f          	j	80006a08 <__fixdfsi+0x5c>
80006a24:	00000513          	li	a0,0
80006a28:	00008067          	ret

80006a2c <__floatsidf>:
80006a2c:	ff010113          	add	sp,sp,-16
80006a30:	00112623          	sw	ra,12(sp)
80006a34:	00812423          	sw	s0,8(sp)
80006a38:	00912223          	sw	s1,4(sp)
80006a3c:	08050663          	beqz	a0,80006ac8 <__floatsidf+0x9c>
80006a40:	41f55793          	sra	a5,a0,0x1f
80006a44:	00a7c433          	xor	s0,a5,a0
80006a48:	40f40433          	sub	s0,s0,a5
80006a4c:	01f55493          	srl	s1,a0,0x1f
80006a50:	00040513          	mv	a0,s0
80006a54:	5dc010ef          	jal	80008030 <__clzsi2>
80006a58:	41e00713          	li	a4,1054
80006a5c:	00a00793          	li	a5,10
80006a60:	40a70733          	sub	a4,a4,a0
80006a64:	04a7c863          	blt	a5,a0,80006ab4 <__floatsidf+0x88>
80006a68:	00b00793          	li	a5,11
80006a6c:	40a787b3          	sub	a5,a5,a0
80006a70:	01550513          	add	a0,a0,21 # 80000015 <__heap_size+0x7fe00015>
80006a74:	00f457b3          	srl	a5,s0,a5
80006a78:	00a41433          	sll	s0,s0,a0
80006a7c:	00048513          	mv	a0,s1
80006a80:	00c79793          	sll	a5,a5,0xc
80006a84:	00c7d793          	srl	a5,a5,0xc
80006a88:	01471713          	sll	a4,a4,0x14
80006a8c:	01f51513          	sll	a0,a0,0x1f
80006a90:	00f76733          	or	a4,a4,a5
80006a94:	00c12083          	lw	ra,12(sp)
80006a98:	00a767b3          	or	a5,a4,a0
80006a9c:	00040513          	mv	a0,s0
80006aa0:	00812403          	lw	s0,8(sp)
80006aa4:	00412483          	lw	s1,4(sp)
80006aa8:	00078593          	mv	a1,a5
80006aac:	01010113          	add	sp,sp,16
80006ab0:	00008067          	ret
80006ab4:	ff550513          	add	a0,a0,-11
80006ab8:	00a417b3          	sll	a5,s0,a0
80006abc:	00048513          	mv	a0,s1
80006ac0:	00000413          	li	s0,0
80006ac4:	fbdff06f          	j	80006a80 <__floatsidf+0x54>
80006ac8:	00000713          	li	a4,0
80006acc:	00000793          	li	a5,0
80006ad0:	ff1ff06f          	j	80006ac0 <__floatsidf+0x94>

80006ad4 <__fixunsdfdi>:
80006ad4:	00100737          	lui	a4,0x100
80006ad8:	0145d613          	srl	a2,a1,0x14
80006adc:	fff70793          	add	a5,a4,-1 # fffff <__stack_size+0xff7ff>
80006ae0:	7ff67613          	and	a2,a2,2047
80006ae4:	3fe00693          	li	a3,1022
80006ae8:	00b7f7b3          	and	a5,a5,a1
80006aec:	06c6dc63          	bge	a3,a2,80006b64 <__fixunsdfdi+0x90>
80006af0:	01f5d593          	srl	a1,a1,0x1f
80006af4:	06059863          	bnez	a1,80006b64 <__fixunsdfdi+0x90>
80006af8:	43e00693          	li	a3,1086
80006afc:	06c6c863          	blt	a3,a2,80006b6c <__fixunsdfdi+0x98>
80006b00:	00e7e5b3          	or	a1,a5,a4
80006b04:	43200793          	li	a5,1074
80006b08:	02c7d063          	bge	a5,a2,80006b28 <__fixunsdfdi+0x54>
80006b0c:	ff010113          	add	sp,sp,-16
80006b10:	bcd60613          	add	a2,a2,-1075 # 7feffbcd <__heap_size+0x7fcffbcd>
80006b14:	00112623          	sw	ra,12(sp)
80006b18:	4e0010ef          	jal	80007ff8 <__ashldi3>
80006b1c:	00c12083          	lw	ra,12(sp)
80006b20:	01010113          	add	sp,sp,16
80006b24:	00008067          	ret
80006b28:	43300793          	li	a5,1075
80006b2c:	40c787b3          	sub	a5,a5,a2
80006b30:	01f00713          	li	a4,31
80006b34:	00f74e63          	blt	a4,a5,80006b50 <__fixunsdfdi+0x7c>
80006b38:	bed60613          	add	a2,a2,-1043
80006b3c:	00c59633          	sll	a2,a1,a2
80006b40:	00f55533          	srl	a0,a0,a5
80006b44:	00a66533          	or	a0,a2,a0
80006b48:	00f5d5b3          	srl	a1,a1,a5
80006b4c:	00008067          	ret
80006b50:	41300513          	li	a0,1043
80006b54:	40c50533          	sub	a0,a0,a2
80006b58:	00a5d533          	srl	a0,a1,a0
80006b5c:	00000593          	li	a1,0
80006b60:	00008067          	ret
80006b64:	00000513          	li	a0,0
80006b68:	ff5ff06f          	j	80006b5c <__fixunsdfdi+0x88>
80006b6c:	fff00513          	li	a0,-1
80006b70:	fff00593          	li	a1,-1
80006b74:	00008067          	ret

80006b78 <__addsf3>:
80006b78:	ff010113          	add	sp,sp,-16
80006b7c:	00800737          	lui	a4,0x800
80006b80:	fff70713          	add	a4,a4,-1 # 7fffff <__heap_size+0x5fffff>
80006b84:	0175d613          	srl	a2,a1,0x17
80006b88:	00812423          	sw	s0,8(sp)
80006b8c:	01755413          	srl	s0,a0,0x17
80006b90:	00a777b3          	and	a5,a4,a0
80006b94:	01212023          	sw	s2,0(sp)
80006b98:	00b77733          	and	a4,a4,a1
80006b9c:	0ff47413          	zext.b	s0,s0
80006ba0:	0ff67613          	zext.b	a2,a2
80006ba4:	00112623          	sw	ra,12(sp)
80006ba8:	00912223          	sw	s1,4(sp)
80006bac:	01f55913          	srl	s2,a0,0x1f
80006bb0:	01f5d593          	srl	a1,a1,0x1f
80006bb4:	00379793          	sll	a5,a5,0x3
80006bb8:	00371713          	sll	a4,a4,0x3
80006bbc:	40c406b3          	sub	a3,s0,a2
80006bc0:	20b91863          	bne	s2,a1,80006dd0 <__addsf3+0x258>
80006bc4:	12d05863          	blez	a3,80006cf4 <__addsf3+0x17c>
80006bc8:	02061e63          	bnez	a2,80006c04 <__addsf3+0x8c>
80006bcc:	1e070e63          	beqz	a4,80006dc8 <__addsf3+0x250>
80006bd0:	fff68613          	add	a2,a3,-1
80006bd4:	02061063          	bnez	a2,80006bf4 <__addsf3+0x7c>
80006bd8:	00e787b3          	add	a5,a5,a4
80006bdc:	04000737          	lui	a4,0x4000
80006be0:	00e7f733          	and	a4,a5,a4
80006be4:	00200413          	li	s0,2
80006be8:	0e071863          	bnez	a4,80006cd8 <__addsf3+0x160>
80006bec:	00100413          	li	s0,1
80006bf0:	0340006f          	j	80006c24 <__addsf3+0xac>
80006bf4:	0ff00593          	li	a1,255
80006bf8:	02b69063          	bne	a3,a1,80006c18 <__addsf3+0xa0>
80006bfc:	0ff00413          	li	s0,255
80006c00:	0240006f          	j	80006c24 <__addsf3+0xac>
80006c04:	0ff00613          	li	a2,255
80006c08:	00c40e63          	beq	s0,a2,80006c24 <__addsf3+0xac>
80006c0c:	04000637          	lui	a2,0x4000
80006c10:	00c76733          	or	a4,a4,a2
80006c14:	00068613          	mv	a2,a3
80006c18:	01b00693          	li	a3,27
80006c1c:	08c6d263          	bge	a3,a2,80006ca0 <__addsf3+0x128>
80006c20:	00178793          	add	a5,a5,1 # 80001 <__stack_size+0x7f801>
80006c24:	0077f713          	and	a4,a5,7
80006c28:	00070a63          	beqz	a4,80006c3c <__addsf3+0xc4>
80006c2c:	00f7f713          	and	a4,a5,15
80006c30:	00400693          	li	a3,4
80006c34:	00d70463          	beq	a4,a3,80006c3c <__addsf3+0xc4>
80006c38:	00478793          	add	a5,a5,4
80006c3c:	04000737          	lui	a4,0x4000
80006c40:	00e7f733          	and	a4,a5,a4
80006c44:	38070063          	beqz	a4,80006fc4 <__addsf3+0x44c>
80006c48:	00140413          	add	s0,s0,1
80006c4c:	0ff00713          	li	a4,255
80006c50:	00000493          	li	s1,0
80006c54:	00e40a63          	beq	s0,a4,80006c68 <__addsf3+0xf0>
80006c58:	0037d493          	srl	s1,a5,0x3
80006c5c:	1f8007b7          	lui	a5,0x1f800
80006c60:	fff78793          	add	a5,a5,-1 # 1f7fffff <__heap_size+0x1f5fffff>
80006c64:	00f4f4b3          	and	s1,s1,a5
80006c68:	01741413          	sll	s0,s0,0x17
80006c6c:	7f8007b7          	lui	a5,0x7f800
80006c70:	00949493          	sll	s1,s1,0x9
80006c74:	0094d493          	srl	s1,s1,0x9
80006c78:	00f47433          	and	s0,s0,a5
80006c7c:	00946433          	or	s0,s0,s1
80006c80:	01f91513          	sll	a0,s2,0x1f
80006c84:	00c12083          	lw	ra,12(sp)
80006c88:	00a46533          	or	a0,s0,a0
80006c8c:	00812403          	lw	s0,8(sp)
80006c90:	00412483          	lw	s1,4(sp)
80006c94:	00012903          	lw	s2,0(sp)
80006c98:	01010113          	add	sp,sp,16
80006c9c:	00008067          	ret
80006ca0:	02000693          	li	a3,32
80006ca4:	40c686b3          	sub	a3,a3,a2
80006ca8:	00c755b3          	srl	a1,a4,a2
80006cac:	00d71733          	sll	a4,a4,a3
80006cb0:	00e03733          	snez	a4,a4
80006cb4:	00e5e733          	or	a4,a1,a4
80006cb8:	00e787b3          	add	a5,a5,a4
80006cbc:	04000737          	lui	a4,0x4000
80006cc0:	00e7f733          	and	a4,a5,a4
80006cc4:	f60700e3          	beqz	a4,80006c24 <__addsf3+0xac>
80006cc8:	00140413          	add	s0,s0,1
80006ccc:	0ff00713          	li	a4,255
80006cd0:	00000493          	li	s1,0
80006cd4:	f8e40ae3          	beq	s0,a4,80006c68 <__addsf3+0xf0>
80006cd8:	7e000737          	lui	a4,0x7e000
80006cdc:	0017f693          	and	a3,a5,1
80006ce0:	fff70713          	add	a4,a4,-1 # 7dffffff <__heap_size+0x7ddfffff>
80006ce4:	0017d793          	srl	a5,a5,0x1
80006ce8:	00e7f7b3          	and	a5,a5,a4
80006cec:	00d7e7b3          	or	a5,a5,a3
80006cf0:	f35ff06f          	j	80006c24 <__addsf3+0xac>
80006cf4:	06068a63          	beqz	a3,80006d68 <__addsf3+0x1f0>
80006cf8:	408606b3          	sub	a3,a2,s0
80006cfc:	02041063          	bnez	s0,80006d1c <__addsf3+0x1a4>
80006d00:	2a078263          	beqz	a5,80006fa4 <__addsf3+0x42c>
80006d04:	fff68593          	add	a1,a3,-1
80006d08:	ec0588e3          	beqz	a1,80006bd8 <__addsf3+0x60>
80006d0c:	0ff00513          	li	a0,255
80006d10:	02a69063          	bne	a3,a0,80006d30 <__addsf3+0x1b8>
80006d14:	00070793          	mv	a5,a4
80006d18:	ee5ff06f          	j	80006bfc <__addsf3+0x84>
80006d1c:	0ff00593          	li	a1,255
80006d20:	feb60ae3          	beq	a2,a1,80006d14 <__addsf3+0x19c>
80006d24:	040005b7          	lui	a1,0x4000
80006d28:	00b7e7b3          	or	a5,a5,a1
80006d2c:	00068593          	mv	a1,a3
80006d30:	01b00693          	li	a3,27
80006d34:	00b6d863          	bge	a3,a1,80006d44 <__addsf3+0x1cc>
80006d38:	00170793          	add	a5,a4,1
80006d3c:	00060413          	mv	s0,a2
80006d40:	ee5ff06f          	j	80006c24 <__addsf3+0xac>
80006d44:	02000693          	li	a3,32
80006d48:	40b686b3          	sub	a3,a3,a1
80006d4c:	00b7d533          	srl	a0,a5,a1
80006d50:	00d797b3          	sll	a5,a5,a3
80006d54:	00f037b3          	snez	a5,a5
80006d58:	00f567b3          	or	a5,a0,a5
80006d5c:	00e787b3          	add	a5,a5,a4
80006d60:	00060413          	mv	s0,a2
80006d64:	f59ff06f          	j	80006cbc <__addsf3+0x144>
80006d68:	00140693          	add	a3,s0,1
80006d6c:	0fe6f613          	and	a2,a3,254
80006d70:	04061463          	bnez	a2,80006db8 <__addsf3+0x240>
80006d74:	02041663          	bnez	s0,80006da0 <__addsf3+0x228>
80006d78:	22078a63          	beqz	a5,80006fac <__addsf3+0x434>
80006d7c:	ea0704e3          	beqz	a4,80006c24 <__addsf3+0xac>
80006d80:	00e787b3          	add	a5,a5,a4
80006d84:	04000737          	lui	a4,0x4000
80006d88:	00e7f733          	and	a4,a5,a4
80006d8c:	e8070ce3          	beqz	a4,80006c24 <__addsf3+0xac>
80006d90:	fc000737          	lui	a4,0xfc000
80006d94:	fff70713          	add	a4,a4,-1 # fbffffff <__freertos_irq_stack_top+0x7bded6cf>
80006d98:	00e7f7b3          	and	a5,a5,a4
80006d9c:	e51ff06f          	j	80006bec <__addsf3+0x74>
80006da0:	f6078ae3          	beqz	a5,80006d14 <__addsf3+0x19c>
80006da4:	e4070ce3          	beqz	a4,80006bfc <__addsf3+0x84>
80006da8:	00000913          	li	s2,0
80006dac:	0ff00413          	li	s0,255
80006db0:	004004b7          	lui	s1,0x400
80006db4:	eb5ff06f          	j	80006c68 <__addsf3+0xf0>
80006db8:	0ff00613          	li	a2,255
80006dbc:	22c68063          	beq	a3,a2,80006fdc <__addsf3+0x464>
80006dc0:	00e78733          	add	a4,a5,a4
80006dc4:	00175793          	srl	a5,a4,0x1
80006dc8:	00068413          	mv	s0,a3
80006dcc:	e59ff06f          	j	80006c24 <__addsf3+0xac>
80006dd0:	08d05063          	blez	a3,80006e50 <__addsf3+0x2d8>
80006dd4:	06061263          	bnez	a2,80006e38 <__addsf3+0x2c0>
80006dd8:	fe0708e3          	beqz	a4,80006dc8 <__addsf3+0x250>
80006ddc:	fff68613          	add	a2,a3,-1
80006de0:	00061863          	bnez	a2,80006df0 <__addsf3+0x278>
80006de4:	40e787b3          	sub	a5,a5,a4
80006de8:	00100413          	li	s0,1
80006dec:	0340006f          	j	80006e20 <__addsf3+0x2a8>
80006df0:	0ff00593          	li	a1,255
80006df4:	e0b684e3          	beq	a3,a1,80006bfc <__addsf3+0x84>
80006df8:	01b00593          	li	a1,27
80006dfc:	00100693          	li	a3,1
80006e00:	00c5ce63          	blt	a1,a2,80006e1c <__addsf3+0x2a4>
80006e04:	02000693          	li	a3,32
80006e08:	40c686b3          	sub	a3,a3,a2
80006e0c:	00c755b3          	srl	a1,a4,a2
80006e10:	00d71733          	sll	a4,a4,a3
80006e14:	00e03733          	snez	a4,a4
80006e18:	00e5e6b3          	or	a3,a1,a4
80006e1c:	40d787b3          	sub	a5,a5,a3
80006e20:	040004b7          	lui	s1,0x4000
80006e24:	0097f733          	and	a4,a5,s1
80006e28:	de070ee3          	beqz	a4,80006c24 <__addsf3+0xac>
80006e2c:	fff48493          	add	s1,s1,-1 # 3ffffff <__heap_size+0x3dfffff>
80006e30:	0097f4b3          	and	s1,a5,s1
80006e34:	1140006f          	j	80006f48 <__addsf3+0x3d0>
80006e38:	0ff00613          	li	a2,255
80006e3c:	dec404e3          	beq	s0,a2,80006c24 <__addsf3+0xac>
80006e40:	04000637          	lui	a2,0x4000
80006e44:	00c76733          	or	a4,a4,a2
80006e48:	00068613          	mv	a2,a3
80006e4c:	fadff06f          	j	80006df8 <__addsf3+0x280>
80006e50:	08068063          	beqz	a3,80006ed0 <__addsf3+0x358>
80006e54:	408606b3          	sub	a3,a2,s0
80006e58:	02041863          	bnez	s0,80006e88 <__addsf3+0x310>
80006e5c:	14078c63          	beqz	a5,80006fb4 <__addsf3+0x43c>
80006e60:	fff68513          	add	a0,a3,-1
80006e64:	00051863          	bnez	a0,80006e74 <__addsf3+0x2fc>
80006e68:	40f707b3          	sub	a5,a4,a5
80006e6c:	00058913          	mv	s2,a1
80006e70:	f79ff06f          	j	80006de8 <__addsf3+0x270>
80006e74:	0ff00813          	li	a6,255
80006e78:	03069263          	bne	a3,a6,80006e9c <__addsf3+0x324>
80006e7c:	00070793          	mv	a5,a4
80006e80:	0ff00413          	li	s0,255
80006e84:	1380006f          	j	80006fbc <__addsf3+0x444>
80006e88:	0ff00513          	li	a0,255
80006e8c:	fea608e3          	beq	a2,a0,80006e7c <__addsf3+0x304>
80006e90:	04000537          	lui	a0,0x4000
80006e94:	00a7e7b3          	or	a5,a5,a0
80006e98:	00068513          	mv	a0,a3
80006e9c:	01b00813          	li	a6,27
80006ea0:	00100693          	li	a3,1
80006ea4:	00a84e63          	blt	a6,a0,80006ec0 <__addsf3+0x348>
80006ea8:	02000693          	li	a3,32
80006eac:	40a686b3          	sub	a3,a3,a0
80006eb0:	00a7d833          	srl	a6,a5,a0
80006eb4:	00d797b3          	sll	a5,a5,a3
80006eb8:	00f037b3          	snez	a5,a5
80006ebc:	00f866b3          	or	a3,a6,a5
80006ec0:	40d707b3          	sub	a5,a4,a3
80006ec4:	00060413          	mv	s0,a2
80006ec8:	00058913          	mv	s2,a1
80006ecc:	f55ff06f          	j	80006e20 <__addsf3+0x2a8>
80006ed0:	00140693          	add	a3,s0,1
80006ed4:	0fe6f693          	and	a3,a3,254
80006ed8:	04069c63          	bnez	a3,80006f30 <__addsf3+0x3b8>
80006edc:	04041063          	bnez	s0,80006f1c <__addsf3+0x3a4>
80006ee0:	00079a63          	bnez	a5,80006ef4 <__addsf3+0x37c>
80006ee4:	00070793          	mv	a5,a4
80006ee8:	0c071a63          	bnez	a4,80006fbc <__addsf3+0x444>
80006eec:	00000493          	li	s1,0
80006ef0:	0240006f          	j	80006f14 <__addsf3+0x39c>
80006ef4:	d20708e3          	beqz	a4,80006c24 <__addsf3+0xac>
80006ef8:	40e784b3          	sub	s1,a5,a4
80006efc:	040006b7          	lui	a3,0x4000
80006f00:	00d4f6b3          	and	a3,s1,a3
80006f04:	40f707b3          	sub	a5,a4,a5
80006f08:	0a069a63          	bnez	a3,80006fbc <__addsf3+0x444>
80006f0c:	00048793          	mv	a5,s1
80006f10:	d0049ae3          	bnez	s1,80006c24 <__addsf3+0xac>
80006f14:	00000913          	li	s2,0
80006f18:	d51ff06f          	j	80006c68 <__addsf3+0xf0>
80006f1c:	e80794e3          	bnez	a5,80006da4 <__addsf3+0x22c>
80006f20:	e80704e3          	beqz	a4,80006da8 <__addsf3+0x230>
80006f24:	00070793          	mv	a5,a4
80006f28:	00058913          	mv	s2,a1
80006f2c:	cd1ff06f          	j	80006bfc <__addsf3+0x84>
80006f30:	40e784b3          	sub	s1,a5,a4
80006f34:	040006b7          	lui	a3,0x4000
80006f38:	00d4f6b3          	and	a3,s1,a3
80006f3c:	04068463          	beqz	a3,80006f84 <__addsf3+0x40c>
80006f40:	40f704b3          	sub	s1,a4,a5
80006f44:	00058913          	mv	s2,a1
80006f48:	00048513          	mv	a0,s1
80006f4c:	0e4010ef          	jal	80008030 <__clzsi2>
80006f50:	ffb50513          	add	a0,a0,-5 # 3fffffb <__heap_size+0x3dffffb>
80006f54:	00a494b3          	sll	s1,s1,a0
80006f58:	02854c63          	blt	a0,s0,80006f90 <__addsf3+0x418>
80006f5c:	40850533          	sub	a0,a0,s0
80006f60:	00150513          	add	a0,a0,1
80006f64:	02000713          	li	a4,32
80006f68:	40a70733          	sub	a4,a4,a0
80006f6c:	00a4d7b3          	srl	a5,s1,a0
80006f70:	00e494b3          	sll	s1,s1,a4
80006f74:	009034b3          	snez	s1,s1
80006f78:	0097e7b3          	or	a5,a5,s1
80006f7c:	00000413          	li	s0,0
80006f80:	ca5ff06f          	j	80006c24 <__addsf3+0xac>
80006f84:	fc0492e3          	bnez	s1,80006f48 <__addsf3+0x3d0>
80006f88:	00000413          	li	s0,0
80006f8c:	f89ff06f          	j	80006f14 <__addsf3+0x39c>
80006f90:	fc0007b7          	lui	a5,0xfc000
80006f94:	fff78793          	add	a5,a5,-1 # fbffffff <__freertos_irq_stack_top+0x7bded6cf>
80006f98:	40a40433          	sub	s0,s0,a0
80006f9c:	00f4f7b3          	and	a5,s1,a5
80006fa0:	c85ff06f          	j	80006c24 <__addsf3+0xac>
80006fa4:	00070793          	mv	a5,a4
80006fa8:	e21ff06f          	j	80006dc8 <__addsf3+0x250>
80006fac:	00070793          	mv	a5,a4
80006fb0:	c75ff06f          	j	80006c24 <__addsf3+0xac>
80006fb4:	00070793          	mv	a5,a4
80006fb8:	00068413          	mv	s0,a3
80006fbc:	00058913          	mv	s2,a1
80006fc0:	c65ff06f          	j	80006c24 <__addsf3+0xac>
80006fc4:	0037d493          	srl	s1,a5,0x3
80006fc8:	0ff00793          	li	a5,255
80006fcc:	c8f41ee3          	bne	s0,a5,80006c68 <__addsf3+0xf0>
80006fd0:	c8048ce3          	beqz	s1,80006c68 <__addsf3+0xf0>
80006fd4:	004004b7          	lui	s1,0x400
80006fd8:	f3dff06f          	j	80006f14 <__addsf3+0x39c>
80006fdc:	0ff00413          	li	s0,255
80006fe0:	00000493          	li	s1,0
80006fe4:	c85ff06f          	j	80006c68 <__addsf3+0xf0>

80006fe8 <__divsf3>:
80006fe8:	fe010113          	add	sp,sp,-32
80006fec:	00912a23          	sw	s1,20(sp)
80006ff0:	01755493          	srl	s1,a0,0x17
80006ff4:	01212823          	sw	s2,16(sp)
80006ff8:	01312623          	sw	s3,12(sp)
80006ffc:	01412423          	sw	s4,8(sp)
80007000:	00951713          	sll	a4,a0,0x9
80007004:	00112e23          	sw	ra,28(sp)
80007008:	00812c23          	sw	s0,24(sp)
8000700c:	01512223          	sw	s5,4(sp)
80007010:	0ff4f493          	zext.b	s1,s1
80007014:	00058a13          	mv	s4,a1
80007018:	00975993          	srl	s3,a4,0x9
8000701c:	01f55913          	srl	s2,a0,0x1f
80007020:	08048463          	beqz	s1,800070a8 <__divsf3+0xc0>
80007024:	0ff00793          	li	a5,255
80007028:	0af48063          	beq	s1,a5,800070c8 <__divsf3+0xe0>
8000702c:	00399713          	sll	a4,s3,0x3
80007030:	040007b7          	lui	a5,0x4000
80007034:	00f769b3          	or	s3,a4,a5
80007038:	f8148493          	add	s1,s1,-127 # 3fff81 <__heap_size+0x1fff81>
8000703c:	00000a93          	li	s5,0
80007040:	017a5793          	srl	a5,s4,0x17
80007044:	009a1413          	sll	s0,s4,0x9
80007048:	0ff7f793          	zext.b	a5,a5
8000704c:	00945413          	srl	s0,s0,0x9
80007050:	01fa5a13          	srl	s4,s4,0x1f
80007054:	08078a63          	beqz	a5,800070e8 <__divsf3+0x100>
80007058:	0ff00713          	li	a4,255
8000705c:	0ae78663          	beq	a5,a4,80007108 <__divsf3+0x120>
80007060:	00341413          	sll	s0,s0,0x3
80007064:	04000737          	lui	a4,0x4000
80007068:	00e46433          	or	s0,s0,a4
8000706c:	f8178793          	add	a5,a5,-127 # 3ffff81 <__heap_size+0x3dfff81>
80007070:	00000693          	li	a3,0
80007074:	40f484b3          	sub	s1,s1,a5
80007078:	002a9793          	sll	a5,s5,0x2
8000707c:	00d7e7b3          	or	a5,a5,a3
80007080:	fff78793          	add	a5,a5,-1
80007084:	00e00713          	li	a4,14
80007088:	01494633          	xor	a2,s2,s4
8000708c:	0cf76663          	bltu	a4,a5,80007158 <__divsf3+0x170>
80007090:	80012737          	lui	a4,0x80012
80007094:	00279793          	sll	a5,a5,0x2
80007098:	fa470713          	add	a4,a4,-92 # 80011fa4 <const_ff+0x5a4>
8000709c:	00e787b3          	add	a5,a5,a4
800070a0:	0007a783          	lw	a5,0(a5)
800070a4:	00078067          	jr	a5
800070a8:	02098a63          	beqz	s3,800070dc <__divsf3+0xf4>
800070ac:	00098513          	mv	a0,s3
800070b0:	781000ef          	jal	80008030 <__clzsi2>
800070b4:	ffb50793          	add	a5,a0,-5
800070b8:	f8a00493          	li	s1,-118
800070bc:	00f999b3          	sll	s3,s3,a5
800070c0:	40a484b3          	sub	s1,s1,a0
800070c4:	f79ff06f          	j	8000703c <__divsf3+0x54>
800070c8:	0ff00493          	li	s1,255
800070cc:	00300a93          	li	s5,3
800070d0:	f60998e3          	bnez	s3,80007040 <__divsf3+0x58>
800070d4:	00200a93          	li	s5,2
800070d8:	f69ff06f          	j	80007040 <__divsf3+0x58>
800070dc:	00000493          	li	s1,0
800070e0:	00100a93          	li	s5,1
800070e4:	f5dff06f          	j	80007040 <__divsf3+0x58>
800070e8:	02040a63          	beqz	s0,8000711c <__divsf3+0x134>
800070ec:	00040513          	mv	a0,s0
800070f0:	741000ef          	jal	80008030 <__clzsi2>
800070f4:	ffb50793          	add	a5,a0,-5
800070f8:	00f41433          	sll	s0,s0,a5
800070fc:	f8a00793          	li	a5,-118
80007100:	40a787b3          	sub	a5,a5,a0
80007104:	f6dff06f          	j	80007070 <__divsf3+0x88>
80007108:	0ff00793          	li	a5,255
8000710c:	00300693          	li	a3,3
80007110:	f60412e3          	bnez	s0,80007074 <__divsf3+0x8c>
80007114:	00200693          	li	a3,2
80007118:	f5dff06f          	j	80007074 <__divsf3+0x8c>
8000711c:	00000793          	li	a5,0
80007120:	00100693          	li	a3,1
80007124:	f51ff06f          	j	80007074 <__divsf3+0x8c>
80007128:	00090613          	mv	a2,s2
8000712c:	00098413          	mv	s0,s3
80007130:	000a8693          	mv	a3,s5
80007134:	00200793          	li	a5,2
80007138:	1cf68a63          	beq	a3,a5,8000730c <__divsf3+0x324>
8000713c:	00300793          	li	a5,3
80007140:	1af68e63          	beq	a3,a5,800072fc <__divsf3+0x314>
80007144:	00100793          	li	a5,1
80007148:	0af69c63          	bne	a3,a5,80007200 <__divsf3+0x218>
8000714c:	00000793          	li	a5,0
80007150:	00000713          	li	a4,0
80007154:	0f40006f          	j	80007248 <__divsf3+0x260>
80007158:	00541593          	sll	a1,s0,0x5
8000715c:	1289f463          	bgeu	s3,s0,80007284 <__divsf3+0x29c>
80007160:	fff48493          	add	s1,s1,-1
80007164:	00000793          	li	a5,0
80007168:	0105d513          	srl	a0,a1,0x10
8000716c:	02a9d8b3          	divu	a7,s3,a0
80007170:	000106b7          	lui	a3,0x10
80007174:	fff68693          	add	a3,a3,-1 # ffff <__stack_size+0xf7ff>
80007178:	00d5f6b3          	and	a3,a1,a3
8000717c:	0107d793          	srl	a5,a5,0x10
80007180:	02a9f733          	remu	a4,s3,a0
80007184:	00088413          	mv	s0,a7
80007188:	03168833          	mul	a6,a3,a7
8000718c:	01071713          	sll	a4,a4,0x10
80007190:	00e7e7b3          	or	a5,a5,a4
80007194:	0107fe63          	bgeu	a5,a6,800071b0 <__divsf3+0x1c8>
80007198:	00f587b3          	add	a5,a1,a5
8000719c:	fff88413          	add	s0,a7,-1
800071a0:	00b7e863          	bltu	a5,a1,800071b0 <__divsf3+0x1c8>
800071a4:	0107f663          	bgeu	a5,a6,800071b0 <__divsf3+0x1c8>
800071a8:	ffe88413          	add	s0,a7,-2
800071ac:	00b787b3          	add	a5,a5,a1
800071b0:	410787b3          	sub	a5,a5,a6
800071b4:	02a7d833          	divu	a6,a5,a0
800071b8:	02a7f7b3          	remu	a5,a5,a0
800071bc:	03068733          	mul	a4,a3,a6
800071c0:	01079793          	sll	a5,a5,0x10
800071c4:	00080693          	mv	a3,a6
800071c8:	02e7f263          	bgeu	a5,a4,800071ec <__divsf3+0x204>
800071cc:	00b78533          	add	a0,a5,a1
800071d0:	00f538b3          	sltu	a7,a0,a5
800071d4:	fff80693          	add	a3,a6,-1
800071d8:	00050793          	mv	a5,a0
800071dc:	00089863          	bnez	a7,800071ec <__divsf3+0x204>
800071e0:	00e57663          	bgeu	a0,a4,800071ec <__divsf3+0x204>
800071e4:	ffe80693          	add	a3,a6,-2
800071e8:	00b507b3          	add	a5,a0,a1
800071ec:	01041413          	sll	s0,s0,0x10
800071f0:	40e787b3          	sub	a5,a5,a4
800071f4:	00d46433          	or	s0,s0,a3
800071f8:	00f037b3          	snez	a5,a5
800071fc:	00f46433          	or	s0,s0,a5
80007200:	07f48713          	add	a4,s1,127
80007204:	08e05a63          	blez	a4,80007298 <__divsf3+0x2b0>
80007208:	00747793          	and	a5,s0,7
8000720c:	00078a63          	beqz	a5,80007220 <__divsf3+0x238>
80007210:	00f47793          	and	a5,s0,15
80007214:	00400693          	li	a3,4
80007218:	00d78463          	beq	a5,a3,80007220 <__divsf3+0x238>
8000721c:	00440413          	add	s0,s0,4
80007220:	080007b7          	lui	a5,0x8000
80007224:	00f477b3          	and	a5,s0,a5
80007228:	00078a63          	beqz	a5,8000723c <__divsf3+0x254>
8000722c:	f80007b7          	lui	a5,0xf8000
80007230:	fff78793          	add	a5,a5,-1 # f7ffffff <__freertos_irq_stack_top+0x77ded6cf>
80007234:	00f47433          	and	s0,s0,a5
80007238:	08048713          	add	a4,s1,128
8000723c:	0fe00793          	li	a5,254
80007240:	0ce7c663          	blt	a5,a4,8000730c <__divsf3+0x324>
80007244:	00345793          	srl	a5,s0,0x3
80007248:	01c12083          	lw	ra,28(sp)
8000724c:	01812403          	lw	s0,24(sp)
80007250:	00979793          	sll	a5,a5,0x9
80007254:	01771713          	sll	a4,a4,0x17
80007258:	0097d793          	srl	a5,a5,0x9
8000725c:	00f76733          	or	a4,a4,a5
80007260:	01f61513          	sll	a0,a2,0x1f
80007264:	01412483          	lw	s1,20(sp)
80007268:	01012903          	lw	s2,16(sp)
8000726c:	00c12983          	lw	s3,12(sp)
80007270:	00812a03          	lw	s4,8(sp)
80007274:	00412a83          	lw	s5,4(sp)
80007278:	00a76533          	or	a0,a4,a0
8000727c:	02010113          	add	sp,sp,32
80007280:	00008067          	ret
80007284:	01f99793          	sll	a5,s3,0x1f
80007288:	0019d993          	srl	s3,s3,0x1
8000728c:	eddff06f          	j	80007168 <__divsf3+0x180>
80007290:	000a0613          	mv	a2,s4
80007294:	ea1ff06f          	j	80007134 <__divsf3+0x14c>
80007298:	00100693          	li	a3,1
8000729c:	00070c63          	beqz	a4,800072b4 <__divsf3+0x2cc>
800072a0:	40e686b3          	sub	a3,a3,a4
800072a4:	01b00593          	li	a1,27
800072a8:	00000793          	li	a5,0
800072ac:	00000713          	li	a4,0
800072b0:	f8d5cce3          	blt	a1,a3,80007248 <__divsf3+0x260>
800072b4:	09e48493          	add	s1,s1,158
800072b8:	00d456b3          	srl	a3,s0,a3
800072bc:	00941433          	sll	s0,s0,s1
800072c0:	00803433          	snez	s0,s0
800072c4:	0086e7b3          	or	a5,a3,s0
800072c8:	0077f713          	and	a4,a5,7
800072cc:	00070a63          	beqz	a4,800072e0 <__divsf3+0x2f8>
800072d0:	00f7f713          	and	a4,a5,15
800072d4:	00400693          	li	a3,4
800072d8:	00d70463          	beq	a4,a3,800072e0 <__divsf3+0x2f8>
800072dc:	00478793          	add	a5,a5,4
800072e0:	04000737          	lui	a4,0x4000
800072e4:	00e7f733          	and	a4,a5,a4
800072e8:	0037d793          	srl	a5,a5,0x3
800072ec:	f4070ee3          	beqz	a4,80007248 <__divsf3+0x260>
800072f0:	00000793          	li	a5,0
800072f4:	00100713          	li	a4,1
800072f8:	f51ff06f          	j	80007248 <__divsf3+0x260>
800072fc:	004007b7          	lui	a5,0x400
80007300:	0ff00713          	li	a4,255
80007304:	00000613          	li	a2,0
80007308:	f41ff06f          	j	80007248 <__divsf3+0x260>
8000730c:	00000793          	li	a5,0
80007310:	0ff00713          	li	a4,255
80007314:	f35ff06f          	j	80007248 <__divsf3+0x260>

80007318 <__gesf2>:
80007318:	00800737          	lui	a4,0x800
8000731c:	fff70713          	add	a4,a4,-1 # 7fffff <__heap_size+0x5fffff>
80007320:	01755693          	srl	a3,a0,0x17
80007324:	00a77633          	and	a2,a4,a0
80007328:	01f55793          	srl	a5,a0,0x1f
8000732c:	0ff6f693          	zext.b	a3,a3
80007330:	0175d513          	srl	a0,a1,0x17
80007334:	0ff00813          	li	a6,255
80007338:	00b77733          	and	a4,a4,a1
8000733c:	0ff57513          	zext.b	a0,a0
80007340:	01f5d593          	srl	a1,a1,0x1f
80007344:	03069863          	bne	a3,a6,80007374 <__gesf2+0x5c>
80007348:	08061e63          	bnez	a2,800073e4 <__gesf2+0xcc>
8000734c:	00d50a63          	beq	a0,a3,80007360 <__gesf2+0x48>
80007350:	00100513          	li	a0,1
80007354:	06078c63          	beqz	a5,800073cc <__gesf2+0xb4>
80007358:	fff00513          	li	a0,-1
8000735c:	00008067          	ret
80007360:	ffe00513          	li	a0,-2
80007364:	06071463          	bnez	a4,800073cc <__gesf2+0xb4>
80007368:	feb794e3          	bne	a5,a1,80007350 <__gesf2+0x38>
8000736c:	00000513          	li	a0,0
80007370:	00008067          	ret
80007374:	03051463          	bne	a0,a6,8000739c <__gesf2+0x84>
80007378:	ffe00513          	li	a0,-2
8000737c:	04071863          	bnez	a4,800073cc <__gesf2+0xb4>
80007380:	00069463          	bnez	a3,80007388 <__gesf2+0x70>
80007384:	04060863          	beqz	a2,800073d4 <__gesf2+0xbc>
80007388:	fcb794e3          	bne	a5,a1,80007350 <__gesf2+0x38>
8000738c:	fff00513          	li	a0,-1
80007390:	02078e63          	beqz	a5,800073cc <__gesf2+0xb4>
80007394:	00078513          	mv	a0,a5
80007398:	00008067          	ret
8000739c:	02068263          	beqz	a3,800073c0 <__gesf2+0xa8>
800073a0:	fa0508e3          	beqz	a0,80007350 <__gesf2+0x38>
800073a4:	fab796e3          	bne	a5,a1,80007350 <__gesf2+0x38>
800073a8:	fad544e3          	blt	a0,a3,80007350 <__gesf2+0x38>
800073ac:	fea6c0e3          	blt	a3,a0,8000738c <__gesf2+0x74>
800073b0:	fac760e3          	bltu	a4,a2,80007350 <__gesf2+0x38>
800073b4:	00000513          	li	a0,0
800073b8:	00e67a63          	bgeu	a2,a4,800073cc <__gesf2+0xb4>
800073bc:	fd1ff06f          	j	8000738c <__gesf2+0x74>
800073c0:	fc0512e3          	bnez	a0,80007384 <__gesf2+0x6c>
800073c4:	00071663          	bnez	a4,800073d0 <__gesf2+0xb8>
800073c8:	f80614e3          	bnez	a2,80007350 <__gesf2+0x38>
800073cc:	00008067          	ret
800073d0:	00061e63          	bnez	a2,800073ec <__gesf2+0xd4>
800073d4:	fff00513          	li	a0,-1
800073d8:	fe058ae3          	beqz	a1,800073cc <__gesf2+0xb4>
800073dc:	00058513          	mv	a0,a1
800073e0:	00008067          	ret
800073e4:	ffe00513          	li	a0,-2
800073e8:	00008067          	ret
800073ec:	fcb782e3          	beq	a5,a1,800073b0 <__gesf2+0x98>
800073f0:	f61ff06f          	j	80007350 <__gesf2+0x38>

800073f4 <__lesf2>:
800073f4:	00800737          	lui	a4,0x800
800073f8:	fff70713          	add	a4,a4,-1 # 7fffff <__heap_size+0x5fffff>
800073fc:	01755693          	srl	a3,a0,0x17
80007400:	00a77633          	and	a2,a4,a0
80007404:	01f55793          	srl	a5,a0,0x1f
80007408:	0ff6f693          	zext.b	a3,a3
8000740c:	0175d513          	srl	a0,a1,0x17
80007410:	0ff00813          	li	a6,255
80007414:	00b77733          	and	a4,a4,a1
80007418:	0ff57513          	zext.b	a0,a0
8000741c:	01f5d593          	srl	a1,a1,0x1f
80007420:	03069863          	bne	a3,a6,80007450 <__lesf2+0x5c>
80007424:	08061e63          	bnez	a2,800074c0 <__lesf2+0xcc>
80007428:	00d50a63          	beq	a0,a3,8000743c <__lesf2+0x48>
8000742c:	00100513          	li	a0,1
80007430:	06078c63          	beqz	a5,800074a8 <__lesf2+0xb4>
80007434:	fff00513          	li	a0,-1
80007438:	00008067          	ret
8000743c:	00200513          	li	a0,2
80007440:	06071463          	bnez	a4,800074a8 <__lesf2+0xb4>
80007444:	feb794e3          	bne	a5,a1,8000742c <__lesf2+0x38>
80007448:	00000513          	li	a0,0
8000744c:	00008067          	ret
80007450:	03051463          	bne	a0,a6,80007478 <__lesf2+0x84>
80007454:	00200513          	li	a0,2
80007458:	04071863          	bnez	a4,800074a8 <__lesf2+0xb4>
8000745c:	00069463          	bnez	a3,80007464 <__lesf2+0x70>
80007460:	04060863          	beqz	a2,800074b0 <__lesf2+0xbc>
80007464:	fcb794e3          	bne	a5,a1,8000742c <__lesf2+0x38>
80007468:	fff00513          	li	a0,-1
8000746c:	02078e63          	beqz	a5,800074a8 <__lesf2+0xb4>
80007470:	00078513          	mv	a0,a5
80007474:	00008067          	ret
80007478:	02068263          	beqz	a3,8000749c <__lesf2+0xa8>
8000747c:	fa0508e3          	beqz	a0,8000742c <__lesf2+0x38>
80007480:	fab796e3          	bne	a5,a1,8000742c <__lesf2+0x38>
80007484:	fad544e3          	blt	a0,a3,8000742c <__lesf2+0x38>
80007488:	fea6c0e3          	blt	a3,a0,80007468 <__lesf2+0x74>
8000748c:	fac760e3          	bltu	a4,a2,8000742c <__lesf2+0x38>
80007490:	00000513          	li	a0,0
80007494:	00e67a63          	bgeu	a2,a4,800074a8 <__lesf2+0xb4>
80007498:	fd1ff06f          	j	80007468 <__lesf2+0x74>
8000749c:	fc0512e3          	bnez	a0,80007460 <__lesf2+0x6c>
800074a0:	00071663          	bnez	a4,800074ac <__lesf2+0xb8>
800074a4:	f80614e3          	bnez	a2,8000742c <__lesf2+0x38>
800074a8:	00008067          	ret
800074ac:	00061e63          	bnez	a2,800074c8 <__lesf2+0xd4>
800074b0:	fff00513          	li	a0,-1
800074b4:	fe058ae3          	beqz	a1,800074a8 <__lesf2+0xb4>
800074b8:	00058513          	mv	a0,a1
800074bc:	00008067          	ret
800074c0:	00200513          	li	a0,2
800074c4:	00008067          	ret
800074c8:	fcb782e3          	beq	a5,a1,8000748c <__lesf2+0x98>
800074cc:	f61ff06f          	j	8000742c <__lesf2+0x38>

800074d0 <__mulsf3>:
800074d0:	fe010113          	add	sp,sp,-32
800074d4:	01212823          	sw	s2,16(sp)
800074d8:	01755913          	srl	s2,a0,0x17
800074dc:	00912a23          	sw	s1,20(sp)
800074e0:	01312623          	sw	s3,12(sp)
800074e4:	01512223          	sw	s5,4(sp)
800074e8:	00951493          	sll	s1,a0,0x9
800074ec:	00112e23          	sw	ra,28(sp)
800074f0:	00812c23          	sw	s0,24(sp)
800074f4:	01412423          	sw	s4,8(sp)
800074f8:	0ff97913          	zext.b	s2,s2
800074fc:	00058a93          	mv	s5,a1
80007500:	0094d493          	srl	s1,s1,0x9
80007504:	01f55993          	srl	s3,a0,0x1f
80007508:	18090663          	beqz	s2,80007694 <__mulsf3+0x1c4>
8000750c:	0ff00793          	li	a5,255
80007510:	1af90263          	beq	s2,a5,800076b4 <__mulsf3+0x1e4>
80007514:	00349493          	sll	s1,s1,0x3
80007518:	040007b7          	lui	a5,0x4000
8000751c:	00f4e4b3          	or	s1,s1,a5
80007520:	f8190913          	add	s2,s2,-127
80007524:	00000a13          	li	s4,0
80007528:	017ad793          	srl	a5,s5,0x17
8000752c:	009a9413          	sll	s0,s5,0x9
80007530:	0ff7f793          	zext.b	a5,a5
80007534:	00945413          	srl	s0,s0,0x9
80007538:	01fada93          	srl	s5,s5,0x1f
8000753c:	18078c63          	beqz	a5,800076d4 <__mulsf3+0x204>
80007540:	0ff00713          	li	a4,255
80007544:	1ae78863          	beq	a5,a4,800076f4 <__mulsf3+0x224>
80007548:	00341413          	sll	s0,s0,0x3
8000754c:	04000737          	lui	a4,0x4000
80007550:	00e46433          	or	s0,s0,a4
80007554:	f8178793          	add	a5,a5,-127 # 3ffff81 <__heap_size+0x3dfff81>
80007558:	00000713          	li	a4,0
8000755c:	00f90933          	add	s2,s2,a5
80007560:	002a1793          	sll	a5,s4,0x2
80007564:	00e7e7b3          	or	a5,a5,a4
80007568:	00a00693          	li	a3,10
8000756c:	0159c533          	xor	a0,s3,s5
80007570:	00190613          	add	a2,s2,1
80007574:	1ef6c463          	blt	a3,a5,8000775c <__mulsf3+0x28c>
80007578:	00200693          	li	a3,2
8000757c:	18f6cc63          	blt	a3,a5,80007714 <__mulsf3+0x244>
80007580:	fff78793          	add	a5,a5,-1
80007584:	00100693          	li	a3,1
80007588:	1af6f863          	bgeu	a3,a5,80007738 <__mulsf3+0x268>
8000758c:	000108b7          	lui	a7,0x10
80007590:	fff88813          	add	a6,a7,-1 # ffff <__stack_size+0xf7ff>
80007594:	0104d713          	srl	a4,s1,0x10
80007598:	01045793          	srl	a5,s0,0x10
8000759c:	010476b3          	and	a3,s0,a6
800075a0:	0104f4b3          	and	s1,s1,a6
800075a4:	029685b3          	mul	a1,a3,s1
800075a8:	02d706b3          	mul	a3,a4,a3
800075ac:	0105d413          	srl	s0,a1,0x10
800075b0:	02f70733          	mul	a4,a4,a5
800075b4:	029787b3          	mul	a5,a5,s1
800075b8:	00d787b3          	add	a5,a5,a3
800075bc:	00f40433          	add	s0,s0,a5
800075c0:	00d47463          	bgeu	s0,a3,800075c8 <__mulsf3+0xf8>
800075c4:	01170733          	add	a4,a4,a7
800075c8:	010477b3          	and	a5,s0,a6
800075cc:	01079793          	sll	a5,a5,0x10
800075d0:	0105f5b3          	and	a1,a1,a6
800075d4:	00b787b3          	add	a5,a5,a1
800075d8:	00679693          	sll	a3,a5,0x6
800075dc:	01045413          	srl	s0,s0,0x10
800075e0:	00d036b3          	snez	a3,a3
800075e4:	01a7d793          	srl	a5,a5,0x1a
800075e8:	00e40433          	add	s0,s0,a4
800075ec:	00f6e7b3          	or	a5,a3,a5
800075f0:	00641413          	sll	s0,s0,0x6
800075f4:	00f46433          	or	s0,s0,a5
800075f8:	080007b7          	lui	a5,0x8000
800075fc:	00f477b3          	and	a5,s0,a5
80007600:	16078e63          	beqz	a5,8000777c <__mulsf3+0x2ac>
80007604:	00145793          	srl	a5,s0,0x1
80007608:	00147413          	and	s0,s0,1
8000760c:	0087e433          	or	s0,a5,s0
80007610:	07f60713          	add	a4,a2,127 # 400007f <__heap_size+0x3e0007f>
80007614:	16e05863          	blez	a4,80007784 <__mulsf3+0x2b4>
80007618:	00747793          	and	a5,s0,7
8000761c:	00078a63          	beqz	a5,80007630 <__mulsf3+0x160>
80007620:	00f47793          	and	a5,s0,15
80007624:	00400693          	li	a3,4
80007628:	00d78463          	beq	a5,a3,80007630 <__mulsf3+0x160>
8000762c:	00440413          	add	s0,s0,4
80007630:	080007b7          	lui	a5,0x8000
80007634:	00f477b3          	and	a5,s0,a5
80007638:	00078a63          	beqz	a5,8000764c <__mulsf3+0x17c>
8000763c:	f80007b7          	lui	a5,0xf8000
80007640:	fff78793          	add	a5,a5,-1 # f7ffffff <__freertos_irq_stack_top+0x77ded6cf>
80007644:	00f47433          	and	s0,s0,a5
80007648:	08060713          	add	a4,a2,128
8000764c:	0fe00793          	li	a5,254
80007650:	1ae7c463          	blt	a5,a4,800077f8 <__mulsf3+0x328>
80007654:	00345793          	srl	a5,s0,0x3
80007658:	01c12083          	lw	ra,28(sp)
8000765c:	01812403          	lw	s0,24(sp)
80007660:	00979793          	sll	a5,a5,0x9
80007664:	01771713          	sll	a4,a4,0x17
80007668:	0097d793          	srl	a5,a5,0x9
8000766c:	00f76733          	or	a4,a4,a5
80007670:	01f51513          	sll	a0,a0,0x1f
80007674:	01412483          	lw	s1,20(sp)
80007678:	01012903          	lw	s2,16(sp)
8000767c:	00c12983          	lw	s3,12(sp)
80007680:	00812a03          	lw	s4,8(sp)
80007684:	00412a83          	lw	s5,4(sp)
80007688:	00a76533          	or	a0,a4,a0
8000768c:	02010113          	add	sp,sp,32
80007690:	00008067          	ret
80007694:	02048a63          	beqz	s1,800076c8 <__mulsf3+0x1f8>
80007698:	00048513          	mv	a0,s1
8000769c:	195000ef          	jal	80008030 <__clzsi2>
800076a0:	ffb50793          	add	a5,a0,-5
800076a4:	f8a00913          	li	s2,-118
800076a8:	00f494b3          	sll	s1,s1,a5
800076ac:	40a90933          	sub	s2,s2,a0
800076b0:	e75ff06f          	j	80007524 <__mulsf3+0x54>
800076b4:	0ff00913          	li	s2,255
800076b8:	00300a13          	li	s4,3
800076bc:	e60496e3          	bnez	s1,80007528 <__mulsf3+0x58>
800076c0:	00200a13          	li	s4,2
800076c4:	e65ff06f          	j	80007528 <__mulsf3+0x58>
800076c8:	00000913          	li	s2,0
800076cc:	00100a13          	li	s4,1
800076d0:	e59ff06f          	j	80007528 <__mulsf3+0x58>
800076d4:	02040a63          	beqz	s0,80007708 <__mulsf3+0x238>
800076d8:	00040513          	mv	a0,s0
800076dc:	155000ef          	jal	80008030 <__clzsi2>
800076e0:	ffb50793          	add	a5,a0,-5
800076e4:	00f41433          	sll	s0,s0,a5
800076e8:	f8a00793          	li	a5,-118
800076ec:	40a787b3          	sub	a5,a5,a0
800076f0:	e69ff06f          	j	80007558 <__mulsf3+0x88>
800076f4:	0ff00793          	li	a5,255
800076f8:	00300713          	li	a4,3
800076fc:	e60410e3          	bnez	s0,8000755c <__mulsf3+0x8c>
80007700:	00200713          	li	a4,2
80007704:	e59ff06f          	j	8000755c <__mulsf3+0x8c>
80007708:	00000793          	li	a5,0
8000770c:	00100713          	li	a4,1
80007710:	e4dff06f          	j	8000755c <__mulsf3+0x8c>
80007714:	00100693          	li	a3,1
80007718:	00f697b3          	sll	a5,a3,a5
8000771c:	5307f693          	and	a3,a5,1328
80007720:	04069863          	bnez	a3,80007770 <__mulsf3+0x2a0>
80007724:	2407f693          	and	a3,a5,576
80007728:	0c069063          	bnez	a3,800077e8 <__mulsf3+0x318>
8000772c:	0887f793          	and	a5,a5,136
80007730:	e4078ee3          	beqz	a5,8000758c <__mulsf3+0xbc>
80007734:	000a8513          	mv	a0,s5
80007738:	00200793          	li	a5,2
8000773c:	0af70e63          	beq	a4,a5,800077f8 <__mulsf3+0x328>
80007740:	00300793          	li	a5,3
80007744:	0af70263          	beq	a4,a5,800077e8 <__mulsf3+0x318>
80007748:	00100793          	li	a5,1
8000774c:	ecf712e3          	bne	a4,a5,80007610 <__mulsf3+0x140>
80007750:	00000793          	li	a5,0
80007754:	00000713          	li	a4,0
80007758:	f01ff06f          	j	80007658 <__mulsf3+0x188>
8000775c:	00f00693          	li	a3,15
80007760:	08d78463          	beq	a5,a3,800077e8 <__mulsf3+0x318>
80007764:	00b00693          	li	a3,11
80007768:	00098513          	mv	a0,s3
8000776c:	fcd784e3          	beq	a5,a3,80007734 <__mulsf3+0x264>
80007770:	00048413          	mv	s0,s1
80007774:	000a0713          	mv	a4,s4
80007778:	fc1ff06f          	j	80007738 <__mulsf3+0x268>
8000777c:	00090613          	mv	a2,s2
80007780:	e91ff06f          	j	80007610 <__mulsf3+0x140>
80007784:	00100693          	li	a3,1
80007788:	00070c63          	beqz	a4,800077a0 <__mulsf3+0x2d0>
8000778c:	40e686b3          	sub	a3,a3,a4
80007790:	01b00593          	li	a1,27
80007794:	00000793          	li	a5,0
80007798:	00000713          	li	a4,0
8000779c:	ead5cee3          	blt	a1,a3,80007658 <__mulsf3+0x188>
800077a0:	09e60613          	add	a2,a2,158
800077a4:	00d456b3          	srl	a3,s0,a3
800077a8:	00c41433          	sll	s0,s0,a2
800077ac:	00803433          	snez	s0,s0
800077b0:	0086e7b3          	or	a5,a3,s0
800077b4:	0077f713          	and	a4,a5,7
800077b8:	00070a63          	beqz	a4,800077cc <__mulsf3+0x2fc>
800077bc:	00f7f713          	and	a4,a5,15
800077c0:	00400693          	li	a3,4
800077c4:	00d70463          	beq	a4,a3,800077cc <__mulsf3+0x2fc>
800077c8:	00478793          	add	a5,a5,4
800077cc:	04000737          	lui	a4,0x4000
800077d0:	00e7f733          	and	a4,a5,a4
800077d4:	0037d793          	srl	a5,a5,0x3
800077d8:	e80700e3          	beqz	a4,80007658 <__mulsf3+0x188>
800077dc:	00000793          	li	a5,0
800077e0:	00100713          	li	a4,1
800077e4:	e75ff06f          	j	80007658 <__mulsf3+0x188>
800077e8:	004007b7          	lui	a5,0x400
800077ec:	0ff00713          	li	a4,255
800077f0:	00000513          	li	a0,0
800077f4:	e65ff06f          	j	80007658 <__mulsf3+0x188>
800077f8:	00000793          	li	a5,0
800077fc:	0ff00713          	li	a4,255
80007800:	e59ff06f          	j	80007658 <__mulsf3+0x188>

80007804 <__subsf3>:
80007804:	00800737          	lui	a4,0x800
80007808:	ff010113          	add	sp,sp,-16
8000780c:	01755793          	srl	a5,a0,0x17
80007810:	fff70713          	add	a4,a4,-1 # 7fffff <__heap_size+0x5fffff>
80007814:	0175d613          	srl	a2,a1,0x17
80007818:	00912223          	sw	s1,4(sp)
8000781c:	01212023          	sw	s2,0(sp)
80007820:	00a776b3          	and	a3,a4,a0
80007824:	0ff7f913          	zext.b	s2,a5
80007828:	00112623          	sw	ra,12(sp)
8000782c:	00b777b3          	and	a5,a4,a1
80007830:	00812423          	sw	s0,8(sp)
80007834:	0ff67613          	zext.b	a2,a2
80007838:	0ff00813          	li	a6,255
8000783c:	01f55493          	srl	s1,a0,0x1f
80007840:	01f5d593          	srl	a1,a1,0x1f
80007844:	00369513          	sll	a0,a3,0x3
80007848:	00379793          	sll	a5,a5,0x3
8000784c:	09061e63          	bne	a2,a6,800078e8 <__subsf3+0xe4>
80007850:	f0190713          	add	a4,s2,-255
80007854:	00078e63          	beqz	a5,80007870 <__subsf3+0x6c>
80007858:	00058693          	mv	a3,a1
8000785c:	2ab49063          	bne	s1,a1,80007afc <__subsf3+0x2f8>
80007860:	1c070463          	beqz	a4,80007a28 <__subsf3+0x224>
80007864:	0c091463          	bnez	s2,8000792c <__subsf3+0x128>
80007868:	0ff00913          	li	s2,255
8000786c:	1700006f          	j	800079dc <__subsf3+0x1d8>
80007870:	0015c693          	xor	a3,a1,1
80007874:	28d49e63          	bne	s1,a3,80007b10 <__subsf3+0x30c>
80007878:	1a070863          	beqz	a4,80007a28 <__subsf3+0x224>
8000787c:	fe0906e3          	beqz	s2,80007868 <__subsf3+0x64>
80007880:	0ff00913          	li	s2,255
80007884:	04000737          	lui	a4,0x4000
80007888:	00e7f733          	and	a4,a5,a4
8000788c:	40070463          	beqz	a4,80007c94 <__subsf3+0x490>
80007890:	00190913          	add	s2,s2,1
80007894:	0ff00713          	li	a4,255
80007898:	00000413          	li	s0,0
8000789c:	00e90a63          	beq	s2,a4,800078b0 <__subsf3+0xac>
800078a0:	0037d413          	srl	s0,a5,0x3
800078a4:	1f8007b7          	lui	a5,0x1f800
800078a8:	fff78793          	add	a5,a5,-1 # 1f7fffff <__heap_size+0x1f5fffff>
800078ac:	00f47433          	and	s0,s0,a5
800078b0:	01791793          	sll	a5,s2,0x17
800078b4:	7f800737          	lui	a4,0x7f800
800078b8:	00941413          	sll	s0,s0,0x9
800078bc:	00945413          	srl	s0,s0,0x9
800078c0:	00e7f7b3          	and	a5,a5,a4
800078c4:	00c12083          	lw	ra,12(sp)
800078c8:	0087e7b3          	or	a5,a5,s0
800078cc:	00812403          	lw	s0,8(sp)
800078d0:	01f49513          	sll	a0,s1,0x1f
800078d4:	00012903          	lw	s2,0(sp)
800078d8:	00412483          	lw	s1,4(sp)
800078dc:	00a7e533          	or	a0,a5,a0
800078e0:	01010113          	add	sp,sp,16
800078e4:	00008067          	ret
800078e8:	0015c693          	xor	a3,a1,1
800078ec:	40c90733          	sub	a4,s2,a2
800078f0:	18d49a63          	bne	s1,a3,80007a84 <__subsf3+0x280>
800078f4:	0ce05663          	blez	a4,800079c0 <__subsf3+0x1bc>
800078f8:	02061e63          	bnez	a2,80007934 <__subsf3+0x130>
800078fc:	38078463          	beqz	a5,80007c84 <__subsf3+0x480>
80007900:	fff70693          	add	a3,a4,-1 # 7f7fffff <__heap_size+0x7f5fffff>
80007904:	02069063          	bnez	a3,80007924 <__subsf3+0x120>
80007908:	00a787b3          	add	a5,a5,a0
8000790c:	04000737          	lui	a4,0x4000
80007910:	00e7f733          	and	a4,a5,a4
80007914:	00200913          	li	s2,2
80007918:	08071663          	bnez	a4,800079a4 <__subsf3+0x1a0>
8000791c:	00100913          	li	s2,1
80007920:	0300006f          	j	80007950 <__subsf3+0x14c>
80007924:	03071063          	bne	a4,a6,80007944 <__subsf3+0x140>
80007928:	00050793          	mv	a5,a0
8000792c:	0ff00913          	li	s2,255
80007930:	0200006f          	j	80007950 <__subsf3+0x14c>
80007934:	35090c63          	beq	s2,a6,80007c8c <__subsf3+0x488>
80007938:	040006b7          	lui	a3,0x4000
8000793c:	00d7e7b3          	or	a5,a5,a3
80007940:	00070693          	mv	a3,a4
80007944:	01b00713          	li	a4,27
80007948:	02d75263          	bge	a4,a3,8000796c <__subsf3+0x168>
8000794c:	00150793          	add	a5,a0,1
80007950:	0077f713          	and	a4,a5,7
80007954:	f20708e3          	beqz	a4,80007884 <__subsf3+0x80>
80007958:	00f7f713          	and	a4,a5,15
8000795c:	00400693          	li	a3,4
80007960:	f2d702e3          	beq	a4,a3,80007884 <__subsf3+0x80>
80007964:	00478793          	add	a5,a5,4
80007968:	f1dff06f          	j	80007884 <__subsf3+0x80>
8000796c:	02000713          	li	a4,32
80007970:	40d70733          	sub	a4,a4,a3
80007974:	00e79733          	sll	a4,a5,a4
80007978:	00d7d633          	srl	a2,a5,a3
8000797c:	00e03733          	snez	a4,a4
80007980:	00e667b3          	or	a5,a2,a4
80007984:	00a787b3          	add	a5,a5,a0
80007988:	04000737          	lui	a4,0x4000
8000798c:	00e7f733          	and	a4,a5,a4
80007990:	fc0700e3          	beqz	a4,80007950 <__subsf3+0x14c>
80007994:	00190913          	add	s2,s2,1
80007998:	0ff00713          	li	a4,255
8000799c:	00000413          	li	s0,0
800079a0:	f0e908e3          	beq	s2,a4,800078b0 <__subsf3+0xac>
800079a4:	7e000737          	lui	a4,0x7e000
800079a8:	0017f693          	and	a3,a5,1
800079ac:	fff70713          	add	a4,a4,-1 # 7dffffff <__heap_size+0x7ddfffff>
800079b0:	0017d793          	srl	a5,a5,0x1
800079b4:	00e7f7b3          	and	a5,a5,a4
800079b8:	00d7e7b3          	or	a5,a5,a3
800079bc:	f95ff06f          	j	80007950 <__subsf3+0x14c>
800079c0:	06070463          	beqz	a4,80007a28 <__subsf3+0x224>
800079c4:	412606b3          	sub	a3,a2,s2
800079c8:	00090863          	beqz	s2,800079d8 <__subsf3+0x1d4>
800079cc:	04000737          	lui	a4,0x4000
800079d0:	00e56533          	or	a0,a0,a4
800079d4:	01c0006f          	j	800079f0 <__subsf3+0x1ec>
800079d8:	00068913          	mv	s2,a3
800079dc:	f6050ae3          	beqz	a0,80007950 <__subsf3+0x14c>
800079e0:	fff90693          	add	a3,s2,-1
800079e4:	f20682e3          	beqz	a3,80007908 <__subsf3+0x104>
800079e8:	0ff00713          	li	a4,255
800079ec:	f6e902e3          	beq	s2,a4,80007950 <__subsf3+0x14c>
800079f0:	01b00713          	li	a4,27
800079f4:	00d75863          	bge	a4,a3,80007a04 <__subsf3+0x200>
800079f8:	00178793          	add	a5,a5,1
800079fc:	00060913          	mv	s2,a2
80007a00:	f51ff06f          	j	80007950 <__subsf3+0x14c>
80007a04:	02000713          	li	a4,32
80007a08:	40d70733          	sub	a4,a4,a3
80007a0c:	00e51733          	sll	a4,a0,a4
80007a10:	00d555b3          	srl	a1,a0,a3
80007a14:	00e03733          	snez	a4,a4
80007a18:	00e5e733          	or	a4,a1,a4
80007a1c:	00e787b3          	add	a5,a5,a4
80007a20:	00060913          	mv	s2,a2
80007a24:	f65ff06f          	j	80007988 <__subsf3+0x184>
80007a28:	00190713          	add	a4,s2,1
80007a2c:	0fe77693          	and	a3,a4,254
80007a30:	02069e63          	bnez	a3,80007a6c <__subsf3+0x268>
80007a34:	02091663          	bnez	s2,80007a60 <__subsf3+0x25c>
80007a38:	f0050ce3          	beqz	a0,80007950 <__subsf3+0x14c>
80007a3c:	24078863          	beqz	a5,80007c8c <__subsf3+0x488>
80007a40:	00a787b3          	add	a5,a5,a0
80007a44:	04000737          	lui	a4,0x4000
80007a48:	00e7f733          	and	a4,a5,a4
80007a4c:	f00702e3          	beqz	a4,80007950 <__subsf3+0x14c>
80007a50:	fc000737          	lui	a4,0xfc000
80007a54:	fff70713          	add	a4,a4,-1 # fbffffff <__freertos_irq_stack_top+0x7bded6cf>
80007a58:	00e7f7b3          	and	a5,a5,a4
80007a5c:	ec1ff06f          	j	8000791c <__subsf3+0x118>
80007a60:	ec0506e3          	beqz	a0,8000792c <__subsf3+0x128>
80007a64:	ec0782e3          	beqz	a5,80007928 <__subsf3+0x124>
80007a68:	1980006f          	j	80007c00 <__subsf3+0x3fc>
80007a6c:	0ff00693          	li	a3,255
80007a70:	22d70e63          	beq	a4,a3,80007cac <__subsf3+0x4a8>
80007a74:	00f507b3          	add	a5,a0,a5
80007a78:	0017d793          	srl	a5,a5,0x1
80007a7c:	00070913          	mv	s2,a4
80007a80:	ed1ff06f          	j	80007950 <__subsf3+0x14c>
80007a84:	0ae05063          	blez	a4,80007b24 <__subsf3+0x320>
80007a88:	06061063          	bnez	a2,80007ae8 <__subsf3+0x2e4>
80007a8c:	1e078c63          	beqz	a5,80007c84 <__subsf3+0x480>
80007a90:	fff70693          	add	a3,a4,-1
80007a94:	00069863          	bnez	a3,80007aa4 <__subsf3+0x2a0>
80007a98:	40f507b3          	sub	a5,a0,a5
80007a9c:	00100913          	li	s2,1
80007aa0:	0300006f          	j	80007ad0 <__subsf3+0x2cc>
80007aa4:	e90702e3          	beq	a4,a6,80007928 <__subsf3+0x124>
80007aa8:	01b00613          	li	a2,27
80007aac:	00100713          	li	a4,1
80007ab0:	00d64e63          	blt	a2,a3,80007acc <__subsf3+0x2c8>
80007ab4:	02000713          	li	a4,32
80007ab8:	40d70733          	sub	a4,a4,a3
80007abc:	00e79733          	sll	a4,a5,a4
80007ac0:	00d7d633          	srl	a2,a5,a3
80007ac4:	00e03733          	snez	a4,a4
80007ac8:	00e66733          	or	a4,a2,a4
80007acc:	40e507b3          	sub	a5,a0,a4
80007ad0:	04000437          	lui	s0,0x4000
80007ad4:	0087f733          	and	a4,a5,s0
80007ad8:	e6070ce3          	beqz	a4,80007950 <__subsf3+0x14c>
80007adc:	fff40413          	add	s0,s0,-1 # 3ffffff <__heap_size+0x3dfffff>
80007ae0:	0087f433          	and	s0,a5,s0
80007ae4:	1440006f          	j	80007c28 <__subsf3+0x424>
80007ae8:	1b090263          	beq	s2,a6,80007c8c <__subsf3+0x488>
80007aec:	040006b7          	lui	a3,0x4000
80007af0:	00d7e7b3          	or	a5,a5,a3
80007af4:	00070693          	mv	a3,a4
80007af8:	fb1ff06f          	j	80007aa8 <__subsf3+0x2a4>
80007afc:	0a070663          	beqz	a4,80007ba8 <__subsf3+0x3a4>
80007b00:	04090663          	beqz	s2,80007b4c <__subsf3+0x348>
80007b04:	0ff00913          	li	s2,255
80007b08:	00058493          	mv	s1,a1
80007b0c:	e45ff06f          	j	80007950 <__subsf3+0x14c>
80007b10:	08070c63          	beqz	a4,80007ba8 <__subsf3+0x3a4>
80007b14:	04090263          	beqz	s2,80007b58 <__subsf3+0x354>
80007b18:	0ff00913          	li	s2,255
80007b1c:	00068493          	mv	s1,a3
80007b20:	d65ff06f          	j	80007884 <__subsf3+0x80>
80007b24:	08070263          	beqz	a4,80007ba8 <__subsf3+0x3a4>
80007b28:	412605b3          	sub	a1,a2,s2
80007b2c:	06091663          	bnez	s2,80007b98 <__subsf3+0x394>
80007b30:	00068493          	mv	s1,a3
80007b34:	00058913          	mv	s2,a1
80007b38:	e0050ce3          	beqz	a0,80007950 <__subsf3+0x14c>
80007b3c:	fff90593          	add	a1,s2,-1
80007b40:	02059063          	bnez	a1,80007b60 <__subsf3+0x35c>
80007b44:	40a787b3          	sub	a5,a5,a0
80007b48:	f55ff06f          	j	80007a9c <__subsf3+0x298>
80007b4c:	00058493          	mv	s1,a1
80007b50:	0ff00913          	li	s2,255
80007b54:	fe5ff06f          	j	80007b38 <__subsf3+0x334>
80007b58:	00068493          	mv	s1,a3
80007b5c:	ff5ff06f          	j	80007b50 <__subsf3+0x34c>
80007b60:	0ff00713          	li	a4,255
80007b64:	dee906e3          	beq	s2,a4,80007950 <__subsf3+0x14c>
80007b68:	01b00693          	li	a3,27
80007b6c:	00100713          	li	a4,1
80007b70:	00b6ce63          	blt	a3,a1,80007b8c <__subsf3+0x388>
80007b74:	02000713          	li	a4,32
80007b78:	40b70733          	sub	a4,a4,a1
80007b7c:	00e51733          	sll	a4,a0,a4
80007b80:	00b556b3          	srl	a3,a0,a1
80007b84:	00e03733          	snez	a4,a4
80007b88:	00e6e733          	or	a4,a3,a4
80007b8c:	40e787b3          	sub	a5,a5,a4
80007b90:	00060913          	mv	s2,a2
80007b94:	f3dff06f          	j	80007ad0 <__subsf3+0x2cc>
80007b98:	04000737          	lui	a4,0x4000
80007b9c:	00e56533          	or	a0,a0,a4
80007ba0:	00068493          	mv	s1,a3
80007ba4:	fc5ff06f          	j	80007b68 <__subsf3+0x364>
80007ba8:	00190713          	add	a4,s2,1
80007bac:	0fe77713          	and	a4,a4,254
80007bb0:	06071063          	bnez	a4,80007c10 <__subsf3+0x40c>
80007bb4:	04091063          	bnez	s2,80007bf4 <__subsf3+0x3f0>
80007bb8:	00051863          	bnez	a0,80007bc8 <__subsf3+0x3c4>
80007bbc:	0e078e63          	beqz	a5,80007cb8 <__subsf3+0x4b4>
80007bc0:	00068493          	mv	s1,a3
80007bc4:	d8dff06f          	j	80007950 <__subsf3+0x14c>
80007bc8:	0c078263          	beqz	a5,80007c8c <__subsf3+0x488>
80007bcc:	40f50433          	sub	s0,a0,a5
80007bd0:	04000737          	lui	a4,0x4000
80007bd4:	00e47733          	and	a4,s0,a4
80007bd8:	00070663          	beqz	a4,80007be4 <__subsf3+0x3e0>
80007bdc:	40a787b3          	sub	a5,a5,a0
80007be0:	fe1ff06f          	j	80007bc0 <__subsf3+0x3bc>
80007be4:	00040793          	mv	a5,s0
80007be8:	d60414e3          	bnez	s0,80007950 <__subsf3+0x14c>
80007bec:	00000493          	li	s1,0
80007bf0:	cc1ff06f          	j	800078b0 <__subsf3+0xac>
80007bf4:	e60518e3          	bnez	a0,80007a64 <__subsf3+0x260>
80007bf8:	00068493          	mv	s1,a3
80007bfc:	d20798e3          	bnez	a5,8000792c <__subsf3+0x128>
80007c00:	00000493          	li	s1,0
80007c04:	0ff00913          	li	s2,255
80007c08:	00400437          	lui	s0,0x400
80007c0c:	ca5ff06f          	j	800078b0 <__subsf3+0xac>
80007c10:	40f50433          	sub	s0,a0,a5
80007c14:	04000737          	lui	a4,0x4000
80007c18:	00e47733          	and	a4,s0,a4
80007c1c:	04070463          	beqz	a4,80007c64 <__subsf3+0x460>
80007c20:	40a78433          	sub	s0,a5,a0
80007c24:	00068493          	mv	s1,a3
80007c28:	00040513          	mv	a0,s0
80007c2c:	404000ef          	jal	80008030 <__clzsi2>
80007c30:	ffb50513          	add	a0,a0,-5
80007c34:	00a41433          	sll	s0,s0,a0
80007c38:	03254c63          	blt	a0,s2,80007c70 <__subsf3+0x46c>
80007c3c:	41250533          	sub	a0,a0,s2
80007c40:	00150513          	add	a0,a0,1
80007c44:	02000713          	li	a4,32
80007c48:	40a70733          	sub	a4,a4,a0
80007c4c:	00a457b3          	srl	a5,s0,a0
80007c50:	00e41433          	sll	s0,s0,a4
80007c54:	00803433          	snez	s0,s0
80007c58:	0087e7b3          	or	a5,a5,s0
80007c5c:	00000913          	li	s2,0
80007c60:	cf1ff06f          	j	80007950 <__subsf3+0x14c>
80007c64:	fc0412e3          	bnez	s0,80007c28 <__subsf3+0x424>
80007c68:	00000913          	li	s2,0
80007c6c:	f81ff06f          	j	80007bec <__subsf3+0x3e8>
80007c70:	fc0007b7          	lui	a5,0xfc000
80007c74:	fff78793          	add	a5,a5,-1 # fbffffff <__freertos_irq_stack_top+0x7bded6cf>
80007c78:	40a90933          	sub	s2,s2,a0
80007c7c:	00f477b3          	and	a5,s0,a5
80007c80:	cd1ff06f          	j	80007950 <__subsf3+0x14c>
80007c84:	00050793          	mv	a5,a0
80007c88:	df5ff06f          	j	80007a7c <__subsf3+0x278>
80007c8c:	00050793          	mv	a5,a0
80007c90:	cc1ff06f          	j	80007950 <__subsf3+0x14c>
80007c94:	0037d413          	srl	s0,a5,0x3
80007c98:	0ff00793          	li	a5,255
80007c9c:	c0f91ae3          	bne	s2,a5,800078b0 <__subsf3+0xac>
80007ca0:	c00408e3          	beqz	s0,800078b0 <__subsf3+0xac>
80007ca4:	00400437          	lui	s0,0x400
80007ca8:	f45ff06f          	j	80007bec <__subsf3+0x3e8>
80007cac:	0ff00913          	li	s2,255
80007cb0:	00000413          	li	s0,0
80007cb4:	bfdff06f          	j	800078b0 <__subsf3+0xac>
80007cb8:	00000413          	li	s0,0
80007cbc:	f31ff06f          	j	80007bec <__subsf3+0x3e8>

80007cc0 <__fixunssfsi>:
80007cc0:	01755793          	srl	a5,a0,0x17
80007cc4:	00800637          	lui	a2,0x800
80007cc8:	fff60693          	add	a3,a2,-1 # 7fffff <__heap_size+0x5fffff>
80007ccc:	0ff7f793          	zext.b	a5,a5
80007cd0:	07e00593          	li	a1,126
80007cd4:	00a6f6b3          	and	a3,a3,a0
80007cd8:	01f55713          	srl	a4,a0,0x1f
80007cdc:	00000513          	li	a0,0
80007ce0:	02f5de63          	bge	a1,a5,80007d1c <__fixunssfsi+0x5c>
80007ce4:	02071c63          	bnez	a4,80007d1c <__fixunssfsi+0x5c>
80007ce8:	09e00713          	li	a4,158
80007cec:	fff00513          	li	a0,-1
80007cf0:	02f74663          	blt	a4,a5,80007d1c <__fixunssfsi+0x5c>
80007cf4:	09500713          	li	a4,149
80007cf8:	00c6e533          	or	a0,a3,a2
80007cfc:	00f75863          	bge	a4,a5,80007d0c <__fixunssfsi+0x4c>
80007d00:	f6a78793          	add	a5,a5,-150
80007d04:	00f51533          	sll	a0,a0,a5
80007d08:	00008067          	ret
80007d0c:	09600713          	li	a4,150
80007d10:	40f707b3          	sub	a5,a4,a5
80007d14:	00f55533          	srl	a0,a0,a5
80007d18:	00008067          	ret
80007d1c:	00008067          	ret

80007d20 <__floatsisf>:
80007d20:	ff010113          	add	sp,sp,-16
80007d24:	00112623          	sw	ra,12(sp)
80007d28:	00812423          	sw	s0,8(sp)
80007d2c:	00912223          	sw	s1,4(sp)
80007d30:	00050793          	mv	a5,a0
80007d34:	0e050663          	beqz	a0,80007e20 <__floatsisf+0x100>
80007d38:	41f55713          	sra	a4,a0,0x1f
80007d3c:	00a74433          	xor	s0,a4,a0
80007d40:	40e40433          	sub	s0,s0,a4
80007d44:	01f55493          	srl	s1,a0,0x1f
80007d48:	00040513          	mv	a0,s0
80007d4c:	2e4000ef          	jal	80008030 <__clzsi2>
80007d50:	09e00793          	li	a5,158
80007d54:	40a787b3          	sub	a5,a5,a0
80007d58:	09600713          	li	a4,150
80007d5c:	04f74063          	blt	a4,a5,80007d9c <__floatsisf+0x7c>
80007d60:	00800713          	li	a4,8
80007d64:	0ce50463          	beq	a0,a4,80007e2c <__floatsisf+0x10c>
80007d68:	ff850513          	add	a0,a0,-8
80007d6c:	00a41433          	sll	s0,s0,a0
80007d70:	00941413          	sll	s0,s0,0x9
80007d74:	00945413          	srl	s0,s0,0x9
80007d78:	01779793          	sll	a5,a5,0x17
80007d7c:	00c12083          	lw	ra,12(sp)
80007d80:	0087e7b3          	or	a5,a5,s0
80007d84:	00812403          	lw	s0,8(sp)
80007d88:	01f49513          	sll	a0,s1,0x1f
80007d8c:	00a7e533          	or	a0,a5,a0
80007d90:	00412483          	lw	s1,4(sp)
80007d94:	01010113          	add	sp,sp,16
80007d98:	00008067          	ret
80007d9c:	09900713          	li	a4,153
80007da0:	06f75663          	bge	a4,a5,80007e0c <__floatsisf+0xec>
80007da4:	00500713          	li	a4,5
80007da8:	40a70733          	sub	a4,a4,a0
80007dac:	01b50693          	add	a3,a0,27
80007db0:	00e45733          	srl	a4,s0,a4
80007db4:	00d41433          	sll	s0,s0,a3
80007db8:	00803433          	snez	s0,s0
80007dbc:	00876433          	or	s0,a4,s0
80007dc0:	fc000737          	lui	a4,0xfc000
80007dc4:	fff70713          	add	a4,a4,-1 # fbffffff <__freertos_irq_stack_top+0x7bded6cf>
80007dc8:	00747693          	and	a3,s0,7
80007dcc:	00e47733          	and	a4,s0,a4
80007dd0:	00068a63          	beqz	a3,80007de4 <__floatsisf+0xc4>
80007dd4:	00f47413          	and	s0,s0,15
80007dd8:	00400693          	li	a3,4
80007ddc:	00d40463          	beq	s0,a3,80007de4 <__floatsisf+0xc4>
80007de0:	00470713          	add	a4,a4,4
80007de4:	040006b7          	lui	a3,0x4000
80007de8:	00d776b3          	and	a3,a4,a3
80007dec:	00068c63          	beqz	a3,80007e04 <__floatsisf+0xe4>
80007df0:	fc0007b7          	lui	a5,0xfc000
80007df4:	fff78793          	add	a5,a5,-1 # fbffffff <__freertos_irq_stack_top+0x7bded6cf>
80007df8:	00f77733          	and	a4,a4,a5
80007dfc:	09f00793          	li	a5,159
80007e00:	40a787b3          	sub	a5,a5,a0
80007e04:	00375413          	srl	s0,a4,0x3
80007e08:	f69ff06f          	j	80007d70 <__floatsisf+0x50>
80007e0c:	00500693          	li	a3,5
80007e10:	ffb50713          	add	a4,a0,-5
80007e14:	fad506e3          	beq	a0,a3,80007dc0 <__floatsisf+0xa0>
80007e18:	00e41433          	sll	s0,s0,a4
80007e1c:	fa5ff06f          	j	80007dc0 <__floatsisf+0xa0>
80007e20:	00000493          	li	s1,0
80007e24:	00000413          	li	s0,0
80007e28:	f49ff06f          	j	80007d70 <__floatsisf+0x50>
80007e2c:	09600793          	li	a5,150
80007e30:	f41ff06f          	j	80007d70 <__floatsisf+0x50>

80007e34 <__floatunsisf>:
80007e34:	ff010113          	add	sp,sp,-16
80007e38:	00812423          	sw	s0,8(sp)
80007e3c:	00112623          	sw	ra,12(sp)
80007e40:	00050413          	mv	s0,a0
80007e44:	00000793          	li	a5,0
80007e48:	02050463          	beqz	a0,80007e70 <__floatunsisf+0x3c>
80007e4c:	1e4000ef          	jal	80008030 <__clzsi2>
80007e50:	09e00793          	li	a5,158
80007e54:	40a787b3          	sub	a5,a5,a0
80007e58:	09600713          	li	a4,150
80007e5c:	02f74a63          	blt	a4,a5,80007e90 <__floatunsisf+0x5c>
80007e60:	00800713          	li	a4,8
80007e64:	0ae50863          	beq	a0,a4,80007f14 <__floatunsisf+0xe0>
80007e68:	ff850513          	add	a0,a0,-8
80007e6c:	00a41433          	sll	s0,s0,a0
80007e70:	00941413          	sll	s0,s0,0x9
80007e74:	00945413          	srl	s0,s0,0x9
80007e78:	01779513          	sll	a0,a5,0x17
80007e7c:	00c12083          	lw	ra,12(sp)
80007e80:	00856533          	or	a0,a0,s0
80007e84:	00812403          	lw	s0,8(sp)
80007e88:	01010113          	add	sp,sp,16
80007e8c:	00008067          	ret
80007e90:	09900713          	li	a4,153
80007e94:	06f75663          	bge	a4,a5,80007f00 <__floatunsisf+0xcc>
80007e98:	01b50713          	add	a4,a0,27
80007e9c:	00500693          	li	a3,5
80007ea0:	00e41733          	sll	a4,s0,a4
80007ea4:	40a686b3          	sub	a3,a3,a0
80007ea8:	00e03733          	snez	a4,a4
80007eac:	00d45433          	srl	s0,s0,a3
80007eb0:	00876433          	or	s0,a4,s0
80007eb4:	fc000737          	lui	a4,0xfc000
80007eb8:	fff70713          	add	a4,a4,-1 # fbffffff <__freertos_irq_stack_top+0x7bded6cf>
80007ebc:	00747693          	and	a3,s0,7
80007ec0:	00e47733          	and	a4,s0,a4
80007ec4:	00068a63          	beqz	a3,80007ed8 <__floatunsisf+0xa4>
80007ec8:	00f47413          	and	s0,s0,15
80007ecc:	00400693          	li	a3,4
80007ed0:	00d40463          	beq	s0,a3,80007ed8 <__floatunsisf+0xa4>
80007ed4:	00470713          	add	a4,a4,4
80007ed8:	040006b7          	lui	a3,0x4000
80007edc:	00d776b3          	and	a3,a4,a3
80007ee0:	00068c63          	beqz	a3,80007ef8 <__floatunsisf+0xc4>
80007ee4:	fc0007b7          	lui	a5,0xfc000
80007ee8:	fff78793          	add	a5,a5,-1 # fbffffff <__freertos_irq_stack_top+0x7bded6cf>
80007eec:	00f77733          	and	a4,a4,a5
80007ef0:	09f00793          	li	a5,159
80007ef4:	40a787b3          	sub	a5,a5,a0
80007ef8:	00375413          	srl	s0,a4,0x3
80007efc:	f75ff06f          	j	80007e70 <__floatunsisf+0x3c>
80007f00:	00500693          	li	a3,5
80007f04:	ffb50713          	add	a4,a0,-5
80007f08:	fad506e3          	beq	a0,a3,80007eb4 <__floatunsisf+0x80>
80007f0c:	00e41433          	sll	s0,s0,a4
80007f10:	fa5ff06f          	j	80007eb4 <__floatunsisf+0x80>
80007f14:	09600793          	li	a5,150
80007f18:	f59ff06f          	j	80007e70 <__floatunsisf+0x3c>

80007f1c <__extendsfdf2>:
80007f1c:	01755713          	srl	a4,a0,0x17
80007f20:	0ff77713          	zext.b	a4,a4
80007f24:	ff010113          	add	sp,sp,-16
80007f28:	00170793          	add	a5,a4,1
80007f2c:	00812423          	sw	s0,8(sp)
80007f30:	00912223          	sw	s1,4(sp)
80007f34:	00951413          	sll	s0,a0,0x9
80007f38:	00112623          	sw	ra,12(sp)
80007f3c:	0fe7f793          	and	a5,a5,254
80007f40:	00945413          	srl	s0,s0,0x9
80007f44:	01f55493          	srl	s1,a0,0x1f
80007f48:	04078263          	beqz	a5,80007f8c <__extendsfdf2+0x70>
80007f4c:	00345793          	srl	a5,s0,0x3
80007f50:	38070713          	add	a4,a4,896
80007f54:	01d41413          	sll	s0,s0,0x1d
80007f58:	00c79793          	sll	a5,a5,0xc
80007f5c:	00c7d793          	srl	a5,a5,0xc
80007f60:	01471713          	sll	a4,a4,0x14
80007f64:	01f49513          	sll	a0,s1,0x1f
80007f68:	00f76733          	or	a4,a4,a5
80007f6c:	00c12083          	lw	ra,12(sp)
80007f70:	00a767b3          	or	a5,a4,a0
80007f74:	00040513          	mv	a0,s0
80007f78:	00812403          	lw	s0,8(sp)
80007f7c:	00412483          	lw	s1,4(sp)
80007f80:	00078593          	mv	a1,a5
80007f84:	01010113          	add	sp,sp,16
80007f88:	00008067          	ret
80007f8c:	04071663          	bnez	a4,80007fd8 <__extendsfdf2+0xbc>
80007f90:	00000793          	li	a5,0
80007f94:	fc0402e3          	beqz	s0,80007f58 <__extendsfdf2+0x3c>
80007f98:	00040513          	mv	a0,s0
80007f9c:	094000ef          	jal	80008030 <__clzsi2>
80007fa0:	00a00793          	li	a5,10
80007fa4:	02a7c263          	blt	a5,a0,80007fc8 <__extendsfdf2+0xac>
80007fa8:	00b00793          	li	a5,11
80007fac:	40a787b3          	sub	a5,a5,a0
80007fb0:	01550713          	add	a4,a0,21
80007fb4:	00f457b3          	srl	a5,s0,a5
80007fb8:	00e41433          	sll	s0,s0,a4
80007fbc:	38900713          	li	a4,905
80007fc0:	40a70733          	sub	a4,a4,a0
80007fc4:	f95ff06f          	j	80007f58 <__extendsfdf2+0x3c>
80007fc8:	ff550793          	add	a5,a0,-11
80007fcc:	00f417b3          	sll	a5,s0,a5
80007fd0:	00000413          	li	s0,0
80007fd4:	fe9ff06f          	j	80007fbc <__extendsfdf2+0xa0>
80007fd8:	00000793          	li	a5,0
80007fdc:	00040a63          	beqz	s0,80007ff0 <__extendsfdf2+0xd4>
80007fe0:	00345793          	srl	a5,s0,0x3
80007fe4:	00080737          	lui	a4,0x80
80007fe8:	01d41413          	sll	s0,s0,0x1d
80007fec:	00e7e7b3          	or	a5,a5,a4
80007ff0:	7ff00713          	li	a4,2047
80007ff4:	f65ff06f          	j	80007f58 <__extendsfdf2+0x3c>

80007ff8 <__ashldi3>:
80007ff8:	02060063          	beqz	a2,80008018 <__ashldi3+0x20>
80007ffc:	02000793          	li	a5,32
80008000:	40c787b3          	sub	a5,a5,a2
80008004:	00f04c63          	bgtz	a5,8000801c <__ashldi3+0x24>
80008008:	fe060613          	add	a2,a2,-32
8000800c:	00c515b3          	sll	a1,a0,a2
80008010:	00000713          	li	a4,0
80008014:	00070513          	mv	a0,a4
80008018:	00008067          	ret
8000801c:	00c51733          	sll	a4,a0,a2
80008020:	00c595b3          	sll	a1,a1,a2
80008024:	00f55533          	srl	a0,a0,a5
80008028:	00a5e5b3          	or	a1,a1,a0
8000802c:	fe9ff06f          	j	80008014 <__ashldi3+0x1c>

80008030 <__clzsi2>:
80008030:	000107b7          	lui	a5,0x10
80008034:	02f57a63          	bgeu	a0,a5,80008068 <__clzsi2+0x38>
80008038:	10053793          	sltiu	a5,a0,256
8000803c:	0017c793          	xor	a5,a5,1
80008040:	00379793          	sll	a5,a5,0x3
80008044:	80012737          	lui	a4,0x80012
80008048:	02000693          	li	a3,32
8000804c:	40f686b3          	sub	a3,a3,a5
80008050:	00f55533          	srl	a0,a0,a5
80008054:	fe070793          	add	a5,a4,-32 # 80011fe0 <__clz_tab>
80008058:	00a787b3          	add	a5,a5,a0
8000805c:	0007c503          	lbu	a0,0(a5) # 10000 <__stack_size+0xf800>
80008060:	40a68533          	sub	a0,a3,a0
80008064:	00008067          	ret
80008068:	01000737          	lui	a4,0x1000
8000806c:	01000793          	li	a5,16
80008070:	fce56ae3          	bltu	a0,a4,80008044 <__clzsi2+0x14>
80008074:	01800793          	li	a5,24
80008078:	fcdff06f          	j	80008044 <__clzsi2+0x14>
